------- FILE Raiders.asm LEVEL 1 PASS 1
      1  0000 ????						; Disassembly of ~\Projects\Programming\reversing\6502\raiders\raiders.bin
      2  0000 ????						; Disassembled 07/02/23 15:14:09
      3  0000 ????						; Using Stella 6.7
      4  0000 ????						;
      5  0000 ????						; ROM properties name : Raiders of the Lost Ark (1982) (Atari)
      6  0000 ????						; ROM properties MD5  : f724d3dd2471ed4cf5f191dbb724b69f
      7  0000 ????						; Bankswitch type     : F8* (8K) 
      8  0000 ????						;
      9  0000 ????						; Legend: *  = CODE not yet run (tentative code)
     10  0000 ????						;	   D  = DATA directive (referenced in some way)
     11  0000 ????						;	   G  = GFX directive, shown as '#' (stored in player, missile, ball)
     12  0000 ????						;	   P  = PGFX directive, shown as '*' (stored in playfield)
     13  0000 ????						;	   C  = COL directive, shown as color constants (stored in player color)
     14  0000 ????						;	   CP = PCOL directive, shown as color constants (stored in playfield color)
     15  0000 ????						;	   CB = BCOL directive, shown as color constants (stored in background color)
     16  0000 ????						;	   A  = AUD directive (stored in audio registers)
     17  0000 ????						;	   i  = indexed accessed only
     18  0000 ????						;	   c  = used by code executed in RAM
     19  0000 ????						;	   s  = used by stack
     20  0000 ????						;	   !  = page crossed, 1 cycle penalty
     21  0000 ????
     22  0000 ????				      processor	6502
     23  0000 ????
     24  0000 ????
     25  0000 ????						;-----------------------------------------------------------
     26  0000 ????						;	Color constants
     27  0000 ????						;-----------------------------------------------------------
     28  0000 ????
     29  0000 ????						;BLACK 	   = $00
     30  0000 ????						;YELLOW	   = $10
     31  0000 ????						;BROWN 	   = $20
     32  0000 ????						;ORANGE	   = $30
     33  0000 ????						;RED		   = $40
     34  0000 ????						;MAUVE 	   = $50
     35  0000 ????						;VIOLET	   = $60
     36  0000 ????						;PURPLE	   = $70
     37  0000 ????						;BLUE		   = $80
     38  0000 ????						;BLUE_CYAN	   = $90
     39  0000 ????						;CYAN		   = $a0
     40  0000 ????						;CYAN_GREEN	   = $b0
     41  0000 ????						;GREEN 	   = $c0
     42  0000 ????						;GREEN_YELLOW	   = $d0
     43  0000 ????						;GREEN_BEIGE	   = $e0
     44  0000 ????						;BEIGE 	   = $f0
     45  0000 ????
     46  0000 ????
     47  0000 ????						;-----------------------------------------------------------
     48  0000 ????						;	TIA and IO constants accessed
     49  0000 ????						;-----------------------------------------------------------
     50  0000 ????
     51  0000 ????	       00 00	   CXM0P      =	$00	; (R)
     52  0000 ????	       00 05	   CXM1FB     =	$05	; (R)
     53  0000 ????	       00 07	   CXPPMM     =	$07	; (R)
     54  0000 ????	       00 0c	   INPT4      =	$0c	; (R)
     55  0000 ????	       00 0d	   INPT5      =	$0d	; (R)
     56  0000 ????
     57  0000 ????	       00 00	   VSYNC      =	$00	; (W)
     58  0000 ????	       00 01	   VBLANK     =	$01	; (W)
     59  0000 ????	       00 02	   WSYNC      =	$02	; (W)
     60  0000 ????	       00 04	   NUSIZ0     =	$04	; (W)
     61  0000 ????	       00 05	   NUSIZ1     =	$05	; (W)
     62  0000 ????	       00 06	   COLUP0     =	$06	; (W)
     63  0000 ????	       00 07	   COLUP1     =	$07	; (W)
     64  0000 ????	       00 08	   COLUPF     =	$08	; (W)
     65  0000 ????	       00 09	   COLUBK     =	$09	; (W)
     66  0000 ????	       00 0a	   CTRLPF     =	$0a	; (W)
     67  0000 ????	       00 0b	   REFP0      =	$0b	; (W)
     68  0000 ????	       00 0c	   REFP1      =	$0c	; (W)
     69  0000 ????	       00 0d	   PF0	      =	$0d	; (W)
     70  0000 ????	       00 0e	   PF1	      =	$0e	; (W)
     71  0000 ????	       00 0f	   PF2	      =	$0f	; (W)
     72  0000 ????	       00 10	   RESP0      =	$10	; (W)
     73  0000 ????	       00 11	   RESP1      =	$11	; (W)
     74  0000 ????						;RESM0 	 = $12	; (Wi)
     75  0000 ????						;RESM1 	 = $13	; (Wi)
     76  0000 ????	       00 14	   RESBL      =	$14	; (W)
     77  0000 ????	       00 15	   AUDC0      =	$15	; (W)
     78  0000 ????						;AUDC1 	 = $16	; (Wi)
     79  0000 ????	       00 17	   AUDF0      =	$17	; (W)
     80  0000 ????						;AUDF1 	 = $18	; (Wi)
     81  0000 ????	       00 19	   AUDV0      =	$19	; (W)
     82  0000 ????						;AUDV1 	 = $1a	; (Wi)
     83  0000 ????	       00 1b	   GRP0       =	$1b	; (W)
     84  0000 ????	       00 1c	   GRP1       =	$1c	; (W)
     85  0000 ????	       00 1d	   ENAM0      =	$1d	; (W)
     86  0000 ????	       00 1e	   ENAM1      =	$1e	; (W)
     87  0000 ????	       00 1f	   ENABL      =	$1f	; (W)
     88  0000 ????	       00 20	   HMP0       =	$20	; (W)
     89  0000 ????	       00 21	   HMP1       =	$21	; (W)
     90  0000 ????						;HMM0		 = $22	; (Wi)
     91  0000 ????						;HMM1		 = $23	; (Wi)
     92  0000 ????	       00 24	   HMBL       =	$24	; (W)
     93  0000 ????	       00 25	   VDELP0     =	$25	; (W)
     94  0000 ????	       00 26	   VDELP1     =	$26	; (W)
     95  0000 ????	       00 2a	   HMOVE      =	$2a	; (W)
     96  0000 ????	       00 2b	   HMCLR      =	$2b	; (W)
     97  0000 ????	       00 2c	   CXCLR      =	$2c	; (W)
     98  0000 ????
     99  0000 ????	       02 80	   SWCHA      =	$0280
    100  0000 ????	       02 82	   SWCHB      =	$0282
    101  0000 ????	       02 84	   INTIM      =	$0284
    102  0000 ????	       02 96	   TIM64T     =	$0296
    103  0000 ????
    104  0000 ????
    105  0000 ????						;-----------------------------------------------------------
    106  0000 ????						;	RIOT RAM (zero-page) labels
    107  0000 ????						;-----------------------------------------------------------
    108  0000 ????
    109  0000 ????	       00 00	   zero_page  =	$00
    110  0000 ????	       00 80	   scan_line  =	$80
    111  0000 ????	       00 81	   room_num   =	$81
    112  0000 ????	       00 82	   frame_counter =	$82
    113  0000 ????	       00 83	   time_of_day =	$83
    114  0000 ????	       00 84	   ram_84     =	$84	; (c)
    115  0000 ????	       00 85	   ram_85     =	$85	; (c)
    116  0000 ????	       00 86	   ram_86     =	$86	; (c)
    117  0000 ????	       00 87	   ram_87     =	$87	; (c)
    118  0000 ????	       00 88	   ram_88     =	$88	; (c)
    119  0000 ????	       00 89	   ram_89     =	$89	; (c)
    120  0000 ????	       00 8a	   ram_8A     =	$8a
    121  0000 ????	       00 8b	   ram_8B     =	$8b
    122  0000 ????	       00 8c	   ram_8C     =	$8c
    123  0000 ????	       00 8d	   ram_8D     =	$8d
    124  0000 ????	       00 8e	   ram_8E     =	$8e
    125  0000 ????	       00 8f	   ram_8F     =	$8f
    126  0000 ????	       00 90	   ram_90     =	$90
    127  0000 ????	       00 91	   ram_91     =	$91
    128  0000 ????	       00 92	   indy_dir   =	$92
    129  0000 ????	       00 93	   ram_93     =	$93
    130  0000 ????	       00 94	   ram_94     =	$94
    131  0000 ????	       00 95	   ram_95     =	$95
    132  0000 ????	       00 96	   ram_96     =	$96
    133  0000 ????	       00 97	   ram_97     =	$97
    134  0000 ????	       00 98	   ram_98     =	$98
    135  0000 ????	       00 99	   ram_99     =	$99
    136  0000 ????	       00 9a	   ram_9A     =	$9a
    137  0000 ????	       00 9b	   ram_9B     =	$9b
    138  0000 ????	       00 9c	   ram_9C     =	$9c
    139  0000 ????	       00 9d	   ram_9D     =	$9d
    140  0000 ????	       00 9e	   ram_9E     =	$9e
    141  0000 ????	       00 9f	   lives_left =	$9f
    142  0000 ????	       00 a0	   num_bullets =	$a0
    143  0000 ????	       00 a1	   ram_A1     =	$a1
    144  0000 ????	       00 a2	   ram_A2     =	$a2
    145  0000 ????	       00 a3	   ram_A3     =	$a3
    146  0000 ????	       00 a4	   diamond_h  =	$a4
    147  0000 ????	       00 a5	   grenade_used =	$a5
    148  0000 ????	       00 a6	   escape_hatch_used =	$a6
    149  0000 ????	       00 a7	   shovel_used =	$a7
    150  0000 ????	       00 a8	   parachute_used =	$a8
    151  0000 ????	       00 a9	   ankh_used  =	$a9
    152  0000 ????	       00 aa	   yar_found  =	$aa
    153  0000 ????	       00 ab	   ark_found  =	$ab
    154  0000 ????	       00 ac	   thief_shot =	$ac
    155  0000 ????	       00 ad	   mesa_entered =	$ad
    156  0000 ????	       00 ae	   unknown_action =	$ae
    157  0000 ????	       00 af	   ram_AF     =	$af
    158  0000 ????
    159  0000 ????	       00 b1	   ram_B1     =	$b1
    160  0000 ????	       00 b2	   ram_B2     =	$b2
    161  0000 ????
    162  0000 ????	       00 b4	   ram_B4     =	$b4
    163  0000 ????	       00 b5	   ram_B5     =	$b5
    164  0000 ????	       00 b6	   ram_B6     =	$b6
    165  0000 ????	       00 b7	   inv_slot1_lo =	$b7
    166  0000 ????	       00 b8	   inv_slot1_hi =	$b8
    167  0000 ????	       00 b9	   inv_slot2_lo =	$b9
    168  0000 ????	       00 ba	   inv_slot2_hi =	$ba
    169  0000 ????	       00 bb	   inv_slot3_lo =	$bb
    170  0000 ????	       00 bc	   inv_slot3_hi =	$bc
    171  0000 ????	       00 bd	   inv_slot4_lo =	$bd
    172  0000 ????	       00 be	   inv_slot4_hi =	$be
    173  0000 ????	       00 bf	   pwatch_state =	$bf
    174  0000 ????	       00 c0	   pwatch_Addr =	$c0
    175  0000 ????	       00 c1	   inv_slot6_lo =	$c1
    176  0000 ????	       00 c2	   inv_slot6_hi =	$c2
    177  0000 ????	       00 c3	   cursor_pos =	$c3
    178  0000 ????	       00 c4	   ram_C4     =	$c4
    179  0000 ????	       00 c5	   current_inv =	$c5
    180  0000 ????	       00 c6	   ram_C6     =	$c6
    181  0000 ????	       00 c7	   ram_C7     =	$c7
    182  0000 ????	       00 c8	   enemy_x    =	$c8
    183  0000 ????	       00 c9	   indy_x     =	$c9
    184  0000 ????	       00 ca	   ram_CA     =	$ca
    185  0000 ????	       00 cb	   ram_CB     =	$cb
    186  0000 ????	       00 cc	   ram_CC     =	$cc
    187  0000 ????
    188  0000 ????	       00 ce	   enemy_y    =	$ce
    189  0000 ????	       00 cf	   indy_y     =	$cf
    190  0000 ????	       00 d0	   ram_D0     =	$d0
    191  0000 ????	       00 d1	   ram_D1     =	$d1
    192  0000 ????	       00 d2	   ram_D2     =	$d2
    193  0000 ????
    194  0000 ????	       00 d4	   ram_D4     =	$d4
    195  0000 ????	       00 d5	   ram_D5     =	$d5
    196  0000 ????	       00 d6	   ram_D6     =	$d6
    197  0000 ????	       00 d7	   ram_D7     =	$d7
    198  0000 ????	       00 d8	   ram_D8     =	$d8
    199  0000 ????	       00 d9	   indy_anim  =	$d9
    200  0000 ????	       00 da	   ram_DA     =	$da
    201  0000 ????	       00 db	   indy_h     =	$db
    202  0000 ????	       00 dc	   snake_y    =	$dc
    203  0000 ????	       00 dd	   emy_anim   =	$dd
    204  0000 ????	       00 de	   ram_DE     =	$de
    205  0000 ????	       00 df	   ram_DF     =	$df
    206  0000 ????	       00 e0	   ram_E0     =	$e0
    207  0000 ????	       00 e1	   PF1_data   =	$e1
    208  0000 ????	       00 e2	   ram_E2     =	$e2
    209  0000 ????	       00 e3	   PF2_data   =	$e3
    210  0000 ????	       00 e4	   ram_E4     =	$e4
    211  0000 ????	       00 e5	   ram_E5     =	$e5
    212  0000 ????	       00 e6	   ram_E6     =	$e6
    213  0000 ????	       00 e7	   ram_E7     =	$e7
    214  0000 ????	       00 e8	   ram_E8     =	$e8
    215  0000 ????	       00 e9	   ram_E9     =	$e9
    216  0000 ????	       00 ea	   ram_EA     =	$ea
    217  0000 ????	       00 eb	   ram_EB     =	$eb
    218  0000 ????	       00 ec	   ram_EC     =	$ec
    219  0000 ????	       00 ed	   ram_ED     =	$ed
    220  0000 ????	       00 ee	   ram_EE     =	$ee
    221  0000 ????						;		   $ef	(i)
    222  0000 ????						;		   $f0	(i)
    223  0000 ????						;		   $f1	(i)
    224  0000 ????						;		   $f2	(i)
    225  0000 ????
    226  0000 ????						;		   $fc	(s)
    227  0000 ????						;		   $fd	(s)
    228  0000 ????						;		   $fe	(s)
    229  0000 ????						;		   $ff	(s)
    230  0000 ????
    231  0000 ????
    232  0000 ????						;-----------------------------------------------------------
    233  0000 ????						;	User Defined Labels
    234  0000 ????						;-----------------------------------------------------------
    235  0000 ????
    236  0000 ????						;Break 	  = $dd68
    237  0000 ????
    238  0000 ????
    239  0000 ????						;***********************************************************
    240  0000 ????						;	Bank 0 / 0..1
    241  0000 ????						;***********************************************************
    242  0000 ????
    243  0000 ????				      SEG	CODE
    244  0000					      ORG	$0000
    245  0000					      RORG	$d000
    246  0000
    247  0000							;NOTE: 1st bank's vector points right at the cold start routine
    248  0000		       ad f8 ff 	      lda	$FFF8	;4 trigger 1st bank (no effect here, matching LDA in 2nd)
    249  0003
    250  0003				   Ld003
    251  0003		       4c 00 00 	      jmp	game_start	;3   =   3
    252  0006
    253  0006				   Ld006
    254  0006		       a2 04		      ldx	#$04	;2   =   2
    255  0008				   Ld008
    256  0008		       85 02		      sta	WSYNC	;3   =   3
    257  000a							;---------------------------------------
    258  000a		       b5 c8		      lda	enemy_x,x	;4	   
    259  000c		       a8		      tay		;2	   
    260  000d		       b9 00 00 	      lda	Ldb00,y	;4	   
    261  0010		       95 20		      sta	HMP0,x	;4	   
    262  0012		       29 0f		      and	#$0f	;2	   
    263  0014		       a8		      tay		;2   =  18
    264  0015				   Ld015
    265  0015		       88		      dey		;2	   
    266  0016		       10 fd		      bpl	Ld015	;2/3	   
    267  0018		       95 10		      sta	RESP0,x	;4	   
    268  001a		       ca		      dex		;2	   
    269  001b		       10 eb		      bpl	Ld008	;2/3	   
    270  001d		       85 02		      sta	WSYNC	;3   =  15
    271  001f							;---------------------------------------
    272  001f		       85 2a		      sta	HMOVE	;3	   
    273  0021		       4c 00 00 	      jmp	Ldf9c	;3   =   6
    274  0024
    275  0024		       24 31 10 34*	      .byte.b	$24,$31,$10,$34,$a6,$81,$e0,$0a	; $d024 (*)
    276  002c		       90 2e f0 0f*	      .byte.b	$90,$2e,$f0,$0f,$a5,$d1,$69,$01	; $d02c (*)
    277  0034		       4a 4a 4a 4a*	      .byte.b	$4a,$4a,$4a,$4a,$aa,$a9,$08,$55	; $d034 (*)
    278  003c		       df 95 df a5*	      .byte.b	$df,$95,$df,$a5,$8f,$10,$11,$29	; $d03c (*)
    279  0044		       7f 85 8f a5*	      .byte.b	$7f,$85,$8f,$a5,$95,$29,$1f,$f0	; $d044 (*)
    280  004c		       03 20 e9 dc*	      .byte.b	$03,$20,$e9,$dc,$a9,$40,$85,$95	; $d04c (*)
    281  0054		       a9 7f 85 d1*	      .byte.b	$a9,$7f,$85,$d1,$a9,$04,$85,$ac	; $d054 (*)
    282  005c		       24 35 10 4a*	      .byte.b	$24,$35,$10,$4a,$a6,$81,$e0,$09	; $d05c (*)
    283  0064		       f0 56 e0 06*	      .byte.b	$f0,$56,$e0,$06,$f0,$04,$e0,$08	; $d064 (*)
    284  006c		       d0 3c a5 d1*	      .byte.b	$d0,$3c,$a5,$d1,$e5,$d4,$4a,$4a	; $d06c (*)
    285  0074		       f0 11 aa a4*	      .byte.b	$f0,$11,$aa,$a4,$cb,$c0,$12,$90	; $d074 (*)
    286  007c		       27 c0 8d b0*	      .byte.b	$27,$c0,$8d,$b0,$23,$a9,$00,$95	; $d07c (*)
    287  0084		       e5 f0 1d a5*	      .byte.b	$e5,$f0,$1d,$a5,$cb,$c9,$30,$b0	; $d084 (*)
    288  008c		       11 e9 10 49*	      .byte.b	$11,$e9,$10,$49,$1f,$4a,$4a,$aa	; $d08c (*)
    289  0094		       bd 5c dc 25*	      .byte.b	$bd,$5c,$dc,$25,$e5,$85,$e5,$4c	; $d094 (*)
    290  009c		       a4 d0 e9 71*	      .byte.b	$a4,$d0,$e9,$71,$c9,$20,$90,$ed	; $d09c (*)
    291  00a4		       a0 7f 84 8f*	      .byte.b	$a0,$7f,$84,$8f,$84,$d1,$24,$35	; $d0a4 (*)
    292  00ac		       50 0e 24 93*	      .byte.b	$50,$0e,$24,$93,$50,$0a,$a9,$5a	; $d0ac (*)
    293  00b4		       85 d2 85 dc*	      .byte.b	$85,$d2,$85,$dc,$85,$8f,$85,$d1	; $d0b4 (*)
    294  00bc		       24 33 50 2d*	      .byte.b	$24,$33,$50,$2d,$a6,$81,$e0,$06	; $d0bc (*)
    295  00c4		       f0 1c a5 c5*	      .byte.b	$f0,$1c,$a5,$c5,$c9,$02,$f0,$21	; $d0c4 (*)
    296  00cc		       24 93 10 0a*	      .byte.b	$24,$93,$10,$0a,$a5,$83,$29,$07	; $d0cc (*)
    297  00d4		       09 80 85 a1*	      .byte.b	$09,$80,$85,$a1,$d0,$13,$50,$11	; $d0d4 (*)
    298  00dc		       a9 80 85 9d*	      .byte.b	$a9,$80,$85,$9d,$d0,$0b,$a5,$d6	; $d0dc (*)
    299  00e4		       c9 ba d0 05*	      .byte.b	$c9,$ba,$d0,$05,$a9,$0f,$20,$e9	; $d0e4 (*)
    300  00ec		       dc a2 05 e4*	      .byte.b	$dc,$a2,$05,$e4,$81,$d0,$3a,$24	; $d0ec (*)
    301  00f4		       30 10 0f 86*	      .byte.b	$30,$10,$0f,$86,$cf,$a9,$0c,$85	; $d0f4 (*)
    302  00fc		       81 20 78 d8*	      .byte.b	$81,$20,$78,$d8,$a9,$4c,$85,$c9	; $d0fc (*)
    303  0104		       d0 25 a6 cf*	      .byte.b	$d0,$25,$a6,$cf,$e0,$4f,$90,$21	; $d104 (*)
    304  010c		       a9 0a 85 81*	      .byte.b	$a9,$0a,$85,$81,$20,$78,$d8,$a5	; $d10c (*)
    305  0114		       eb 85 df a5*	      .byte.b	$eb,$85,$df,$a5,$ec,$85,$cf,$a5	; $d114 (*)
    306  011c		       ed 85 c9 a9*	      .byte.b	$ed,$85,$c9,$a9,$fd,$25,$b4,$85	; $d11c (*)
    307  0124		       b4 30 04 a9*	      .byte.b	$b4,$30,$04,$a9,$80,$85,$9d,$85	; $d124 (*)
    308  012c		       2c 24 37 30*	      .byte.b	$2c,$24,$37,$30,$0f,$a2,$00,$86	; $d12c (*)
    309  0134		       91 ca 86 97*	      .byte.b	$91,$ca,$86,$97,$26,$95,$18,$66	; $d134 (*)
    310  013c		       95 4c b4 d2*	      .byte.b	$95,$4c,$b4,$d2,$a5,$81,$d0,$13	; $d13c (*)
    311  0144		       a5 af 29 07*	      .byte.b	$a5,$af,$29,$07,$aa,$bd,$78,$df	; $d144 (*)
    312  014c		       20 e9 dc 90*	      .byte.b	$20,$e9,$dc,$90,$ec,$a9,$01,$85	; $d14c (*)
    313  0154		       df d0 e6 0a*	      .byte.b	$df,$d0,$e6,$0a,$aa,$bd,$9c,$dc	; $d154 (*)
    314  015c		       48 bd 9b dc*	      .byte.b	$48,$bd,$9b,$dc,$48,$60,$a5,$cf	; $d15c (*)
    315  0164		       c9 3f 90 22*	      .byte.b	$c9,$3f,$90,$22,$a5,$96,$c9,$54	; $d164 (*)
    316  016c		       d0 53 a5 8c*	      .byte.b	$d0,$53,$a5,$8c,$c5,$8b,$d0,$13	; $d16c (*)
    317  0174		       a9 58 85 9c*	      .byte.b	$a9,$58,$85,$9c,$85,$9e,$20,$db	; $d174 (*)
    318  017c		       dd a9 0d 85*	      .byte.b	$dd,$a9,$0d,$85,$81,$20,$78,$d8	; $d17c (*)
    319  0184		       4c d8 d3 4c*	      .byte.b	$4c,$d8,$d3,$4c,$da,$d2,$a9,$0b	; $d184 (*)
    320  018c		       d0 06 a9 07*	      .byte.b	$d0,$06,$a9,$07,$d0,$02,$a9,$04	; $d18c (*)
    321  0194		       24 95 30 29*	      .byte.b	$24,$95,$30,$29,$18,$20,$10,$da	; $d194 (*)
    322  019c		       b0 06 38 20*	      .byte.b	$b0,$06,$38,$20,$10,$da,$90,$1d	; $d19c (*)
    323  01a4		       c0 0b d0 05*	      .byte.b	$c0,$0b,$d0,$05,$66,$b2,$18,$26	; $d1a4 (*)
    324  01ac		       b2 a5 95 20*	      .byte.b	$b2,$a5,$95,$20,$59,$dd,$98,$09	; $d1ac (*)
    325  01b4		       c0 85 95 d0*	      .byte.b	$c0,$85,$95,$d0,$08,$a2,$00,$86	; $d1b4 (*)
    326  01bc		       b6 a9 80 85*	      .byte.b	$b6,$a9,$80,$85,$9d,$4c,$b4,$d2	; $d1bc (*)
    327  01c4		       24 b4 70 20*	      .byte.b	$24,$b4,$70,$20,$10,$1e,$a5,$c9	; $d1c4 (*)
    328  01cc		       c9 2b 90 12*	      .byte.b	$c9,$2b,$90,$12,$a6,$cf,$e0,$27	; $d1cc (*)
    329  01d4		       90 0c e0 2b*	      .byte.b	$90,$0c,$e0,$2b,$b0,$08,$a9,$40	; $d1d4 (*)
    330  01dc		       05 b4 85 b4*	      .byte.b	$05,$b4,$85,$b4,$d0,$06,$a9,$03	; $d1dc (*)
    331  01e4		       38 20 10 da*	      .byte.b	$38,$20,$10,$da,$4c,$b4,$d2,$24	; $d1e4 (*)
    332  01ec		       33 10 2b a4*	      .byte.b	$33,$10,$2b,$a4,$cf,$c0,$3a,$90	; $d1ec (*)
    333  01f4		       0b a9 e0 25*	      .byte.b	$0b,$a9,$e0,$25,$91,$09,$43,$85	; $d1f4 (*)
    334  01fc		       91 4c b4 d2*	      .byte.b	$91,$4c,$b4,$d2,$c0,$20,$90,$07	; $d1fc (*)
    335  0204		       a9 00 85 91*	      .byte.b	$a9,$00,$85,$91,$4c,$b4,$d2,$c0	; $d204 (*)
    336  020c		       09 90 f5 a9*	      .byte.b	$09,$90,$f5,$a9,$e0,$25,$91,$09	; $d20c (*)
    337  0214		       42 85 91 4c*	      .byte.b	$42,$85,$91,$4c,$b4,$d2,$a5,$cf	; $d214 (*)
    338  021c		       c9 3a 90 04*	      .byte.b	$c9,$3a,$90,$04,$a2,$07,$d0,$0c	; $d21c (*)
    339  0224		       a5 c9 c9 4c*	      .byte.b	$a5,$c9,$c9,$4c,$b0,$04,$a2,$05	; $d224 (*)
    340  022c		       d0 02 a2 0d*	      .byte.b	$d0,$02,$a2,$0d,$a9,$40,$85,$93	; $d22c (*)
    341  0234		       a5 83 29 1f*	      .byte.b	$a5,$83,$29,$1f,$c9,$02,$b0,$02	; $d234 (*)
    342  023c		       a2 0e 20 43*	      .byte.b	$a2,$0e,$20,$43,$dd,$b0,$04,$8a	; $d23c (*)
    343  0244		       20 e9 dc 4c*	      .byte.b	$20,$e9,$dc,$4c,$b4,$d2,$24,$33	; $d244 (*)
    344  024c		       30 20 a5 c9*	      .byte.b	$30,$20,$a5,$c9,$c9,$50,$b0,$0e	; $d24c (*)
    345  0254		       c6 c9 26 b2*	      .byte.b	$c6,$c9,$26,$b2,$18,$66,$b2,$a9	; $d254 (*)
    346  025c		       00 85 91 4c*	      .byte.b	$00,$85,$91,$4c,$b4,$d2,$a2,$06	; $d25c (*)
    347  0264		       a5 83 c9 40*	      .byte.b	$a5,$83,$c9,$40,$b0,$d4,$a2,$07	; $d264 (*)
    348  026c		       d0 d0 a4 cf*	      .byte.b	$d0,$d0,$a4,$cf,$c0,$44,$90,$0a	; $d26c (*)
    349  0274		       a9 e0 25 91*	      .byte.b	$a9,$e0,$25,$91,$09,$0b,$85,$91	; $d274 (*)
    350  027c		       d0 e1 c0 20*	      .byte.b	$d0,$e1,$c0,$20,$b0,$d9,$c0,$0b	; $d27c (*)
    351  0284		       90 d5 a9 e0*	      .byte.b	$90,$d5,$a9,$e0,$25,$91,$09,$41	; $d284 (*)
    352  028c		       d0 ec e6 c9*	      .byte.b	$d0,$ec,$e6,$c9,$d0,$22,$a5,$cf	; $d28c (*)
    353  0294		       c9 3f 90 12*	      .byte.b	$c9,$3f,$90,$12,$a9,$0a,$20,$e9	; $d294 (*)
    354  029c		       dc 90 15 66*	      .byte.b	$dc,$90,$15,$66,$b1,$38,$26,$b1	; $d29c (*)
    355  02a4		       a9 42 85 df*	      .byte.b	$a9,$42,$85,$df,$d0,$0a,$c9,$16	; $d2a4 (*)
    356  02ac		       90 04 c9 1f*	      .byte.b	$90,$04,$c9,$1f,$90,$02,$c6,$c9	; $d2ac (*)
    357  02b4		       a5 81 0a aa*	      .byte.b	$a5,$81,$0a,$aa,$24,$33,$10,$09	; $d2b4 (*)
    358  02bc		       bd b6 dc 48*	      .byte.b	$bd,$b6,$dc,$48,$bd,$b5,$dc,$48	; $d2bc (*)
    359  02c4		       60 bd d0 dc*	      .byte.b	$60,$bd,$d0,$dc,$48,$bd,$cf,$dc	; $d2c4 (*)
    360  02cc		       48 60		      .byte.b	$48,$60	; $d2cc (*)
    361  02ce
    362  02ce				   Ld2ce
    363  02ce		       a5 df		      lda	ram_DF	;3	    *
    364  02d0		       85 eb		      sta	ram_EB	;3	    *
    365  02d2		       a5 cf		      lda	indy_y	;3	    *
    366  02d4		       85 ec		      sta	ram_EC	;3	    *
    367  02d6		       a5 c9		      lda	indy_x	;3	    *
    368  02d8		       85 ed		      sta	ram_ED	;3	    *
    369  02da		       a9 05		      lda	#$05	;2	    *
    370  02dc		       85 81		      sta	room_num	;3	    *
    371  02de		       20 00 00 	      jsr	Ld878	;6	    *
    372  02e1		       a9 05		      lda	#$05	;2	    *
    373  02e3		       85 cf		      sta	indy_y	;3	    *
    374  02e5		       a9 50		      lda	#$50	;2	    *
    375  02e7		       85 c9		      sta	indy_x	;3	    *
    376  02e9		       ba		      tsx		;2	    *
    377  02ea		       e0 fe		      cpx	#$fe	;2	    *
    378  02ec		       b0 fe		      bcs	Ld2ef	;2/3	    *
    379  02ee		       60		      rts		;6   =  51 *
    380  02ef
    381  02ef				   Ld2ef
    382  02ef		       4c 00 00 	      jmp	Ld374	;3   =   3 *
    383  02f2
    384  02f2		       24 b3 30 f9*	      .byte.b	$24,$b3,$30,$f9,$a9,$50,$85,$eb	; $d2f2 (*)
    385  02fa		       a9 41 85 ec*	      .byte.b	$a9,$41,$85,$ec,$a9,$4c,$d0,$d6	; $d2fa (*)
    386  0302		       a4 c9 c0 2c*	      .byte.b	$a4,$c9,$c0,$2c,$90,$12,$c0,$6b	; $d302 (*)
    387  030a		       b0 10 a4 cf*	      .byte.b	$b0,$10,$a4,$cf,$c8,$c0,$1e,$90	; $d30a (*)
    388  0312		       02 88 88 84*	      .byte.b	$02,$88,$88,$84,$cf,$4c,$64,$d3	; $d312 (*)
    389  031a		       c8 c8 88 84*	      .byte.b	$c8,$c8,$88,$84,$c9,$d0,$43,$a9	; $d31a (*)
    390  0322		       02 25 b1 f0*	      .byte.b	$02,$25,$b1,$f0,$0a,$a5,$cf,$c9	; $d322 (*)
    391  032a		       12 90 04 c9*	      .byte.b	$12,$90,$04,$c9,$24,$90,$39,$c6	; $d32a (*)
    392  0332		       c9 d0 2f a2*	      .byte.b	$c9,$d0,$2f,$a2,$1a,$a5,$c9,$c9	; $d332 (*)
    393  033a		       4c 90 02 a2*	      .byte.b	$4c,$90,$02,$a2,$7d,$86,$c9,$a2	; $d33a (*)
    394  0342		       40 86 cf a2*	      .byte.b	$40,$86,$cf,$a2,$ff,$86,$e5,$a2	; $d342 (*)
    395  034a		       01 86 e6 86*	      .byte.b	$01,$86,$e6,$86,$e7,$86,$e8,$86	; $d34a (*)
    396  0352		       e9 86 ea d0*	      .byte.b	$e9,$86,$ea,$d0,$0d,$a5,$92,$29	; $d352 (*)
    397  035a		       0f a8 b9 d5*	      .byte.b	$0f,$a8,$b9,$d5,$df,$a2,$01,$20	; $d35a (*)
    398  0362		       c0 df a9 05*	      .byte.b	$c0,$df,$a9,$05,$85,$a2,$d0,$0a	; $d362 (*)
    399  036a		       26 8a 38 b0*	      .byte.b	$26,$8a,$38,$b0,$03,$26,$8a,$18	; $d36a (*)
    400  0372		       66 8a		      .byte.b	$66,$8a	; $d372 (*)
    401  0374
    402  0374				   Ld374
    403  0374		       24 30		      bit	CXM0P|$30	;3	    *
    404  0376		       10 30		      bpl	Ld396	;2/3	    *
    405  0378		       a6 81		      ldx	room_num	;3	    *
    406  037a		       e0 07		      cpx	#$07	;2	    *
    407  037c		       f0 07		      beq	Ld386	;2/3	    *
    408  037e		       90 07		      bcc	Ld396	;2/3	    *
    409  0380		       a9 80		      lda	#$80	;2	    *
    410  0382		       85 9d		      sta	ram_9D	;3	    *
    411  0384		       d0 9d		      bne	Ld390	;2/3 =  21 *
    412  0386				   Ld386
    413  0386		       26 8a		      rol	ram_8A	;5	    *
    414  0388		       38		      sec		;2	    *
    415  0389		       66 8a		      ror	ram_8A	;5	    *
    416  038b		       26 b6		      rol	ram_B6	;5	    *
    417  038d		       38		      sec		;2	    *
    418  038e		       66 b6		      ror	ram_B6	;5   =  24 *
    419  0390				   Ld390
    420  0390		       a9 7f		      lda	#$7f	;2	    *
    421  0392		       85 8e		      sta	ram_8E	;3	    *
    422  0394		       85 d0		      sta	ram_D0	;3   =   8 *
    423  0396				   Ld396
    424  0396		       24 9a		      bit	ram_9A	;3	    *
    425  0398		       10 9a		      bpl	Ld3d8	;2/3	    *
    426  039a		       70 9a		      bvs	Ld3a8	;2/3	    *
    427  039c		       a5 83		      lda	time_of_day	;3	    *
    428  039e		       c5 9b		      cmp	ram_9B	;3	    *
    429  03a0		       d0 9b		      bne	Ld3d8	;2/3	    *
    430  03a2		       a9 a0		      lda	#$a0	;2	    *
    431  03a4		       85 d1		      sta	ram_D1	;3	    *
    432  03a6		       85 9d		      sta	ram_9D	;3   =  23 *
    433  03a8				   Ld3a8
    434  03a8		       46 9a		      lsr	ram_9A	;5	    *
    435  03aa		       90 9a		      bcc	Ld3d4	;2/3	    *
    436  03ac		       a9 02		      lda	#$02	;2	    *
    437  03ae		       85 a5		      sta	grenade_used	;3	    *
    438  03b0		       05 b1		      ora	ram_B1	;3	    *
    439  03b2		       85 b1		      sta	ram_B1	;3	    *
    440  03b4		       a2 02		      ldx	#$02	;2	    *
    441  03b6		       e4 81		      cpx	room_num	;3	    *
    442  03b8		       d0 81		      bne	Ld3bd	;2/3	    *
    443  03ba		       20 00 00 	      jsr	Ld878	;6   =  31 *
    444  03bd				   Ld3bd
    445  03bd		       a5 b5		      lda	ram_B5	;3	    *
    446  03bf		       29 0f		      and	#$0f	;2	    *
    447  03c1		       f0 0f		      beq	Ld3d4	;2/3	    *
    448  03c3		       a5 b5		      lda	ram_B5	;3	    *
    449  03c5		       29 f0		      and	#$f0	;2	    *
    450  03c7		       09 01		      ora	#$01	;2	    *
    451  03c9		       85 b5		      sta	ram_B5	;3	    *
    452  03cb		       a2 02		      ldx	#$02	;2	    *
    453  03cd		       e4 81		      cpx	room_num	;3	    *
    454  03cf		       d0 81		      bne	Ld3d4	;2/3	    *
    455  03d1		       20 00 00 	      jsr	Ld878	;6   =  30 *
    456  03d4				   Ld3d4
    457  03d4		       38		      sec		;2	    *
    458  03d5		       20 00 00 	      jsr	Lda10	;6   =   8 *
    459  03d8				   Ld3d8
    460  03d8		       ad 84 02 	      lda	INTIM	;4	   
    461  03db		       d0 fb		      bne	Ld3d8	;2/3 =   6
    462  03dd				   Ld3dd
    463  03dd		       a9 02		      lda	#$02	;2	   
    464  03df		       85 02		      sta	WSYNC	;3   =   5
    465  03e1							;---------------------------------------
    466  03e1		       85 00		      sta	VSYNC	;3	   
    467  03e3		       a9 50		      lda	#$50	;2	   
    468  03e5		       c5 d1		      cmp	ram_D1	;3	   
    469  03e7		       b0 d1		      bcs	Ld3eb	;2/3	   
    470  03e9		       85 cb		      sta	ram_CB	;3   =  13 *
    471  03eb				   Ld3eb
    472  03eb		       e6 82		      inc	frame_counter	;Up the frame counter by 1	  
    473  03ed		       a9 3f		      lda	#$3f	;    
    474  03ef		       25 82		      and	frame_counter	;Every 63 frames (?)	 
    475  03f1		       d0 82		      bne	Ld3fb	;     
    476  03f3		       e6 83		      inc	time_of_day	;Increse the time of day      
    477  03f5		       a5 a1		      lda	ram_A1	;3	   
    478  03f7		       10 a1		      bpl	Ld3fb	;2/3	   
    479  03f9		       c6 a1		      dec	ram_A1	;5   =  27 *
    480  03fb				   Ld3fb
    481  03fb		       85 02		      sta	WSYNC	;3   =   3
    482  03fd							;---------------------------------------
    483  03fd		       24 9c		      bit	ram_9C	;3	   
    484  03ff		       10 9c		      bpl	frame_start	;2/3	   
    485  0401		       6e 82 02 	      ror	SWCHB	;6	    *
    486  0404		       b0 82		      bcs	frame_start	;2/3	    *
    487  0406		       4c 00 00 	      jmp	game_start	;3   =  16 *
    488  0409
    489  0409				   frame_start
    490  0409		       85 02		      sta	WSYNC	;Wait for first Sync 
    491  040b							;---------------------------------------
    492  040b		       a9 00		      lda	#$00	;Load A for VSYNC pause    
    493  040d		       a2 2c		      ldx	#$2c	;Load Timer for 
    494  040f		       85 02		      sta	WSYNC	;3   =   7
    495  0411							;---------------------------------------
    496  0411		       85 00		      sta	VSYNC	;3	   
    497  0413		       8e 96 02 	      stx	TIM64T	;4	   
    498  0416		       a6 9d		      ldx	ram_9D	;3	   
    499  0418		       e8		      inx		;2	   
    500  0419		       d0 9d		      bne	Ld42a	;2/3	   
    501  041b		       86 9d		      stx	ram_9D	;3	    *
    502  041d		       20 00 00 	      jsr	Ldddb	;6	    *
    503  0420		       a9 0d		      lda	#$0d	;2	    *
    504  0422		       85 81		      sta	room_num	;3	    *
    505  0424		       20 00 00 	      jsr	Ld878	;6   =  34 *
    506  0427				   Ld427
    507  0427		       4c 00 00 	      jmp	Ld80d	;3   =   3
    508  042a
    509  042a				   Ld42a
    510  042a		       a5 81		      lda	room_num	;3	   
    511  042c		       c9 0d		      cmp	#$0d	;2	   
    512  042e		       d0 0d		      bne	Ld482	;2/3	   
    513  0430		       a9 9c		      lda	#$9c	;2	   
    514  0432		       85 a3		      sta	ram_A3	;3	   
    515  0434		       a4 aa		      ldy	yar_found	;3	   
    516  0436		       f0 aa		      beq	Ld44a	;2/3	   
    517  0438		       24 9c		      bit	ram_9C	;3	    *
    518  043a		       30 9c		      bmi	Ld44a	;2/3	    *
    519  043c		       a2 ff		      ldx	#$ff	;2	    *
    520  043e		       86 b8		      stx	inv_slot1_hi	;3	    *
    521  0440		       86 ba		      stx	inv_slot2_hi	;3	    *
    522  0442		       a9 46		      lda	#$46	;2	    *
    523  0444		       85 b7		      sta	inv_slot1_lo	;3	    *
    524  0446		       a9 01		      lda	#$01	;2	    *
    525  0448		       85 b9		      sta	inv_slot2_lo	;3   =  40 *
    526  044a				   Ld44a
    527  044a		       a4 cf		      ldy	indy_y	;3	   
    528  044c		       c0 7c		      cpy	#$7c	;2	   
    529  044e		       b0 7c		      bcs	Ld465	;2/3	   
    530  0450		       c4 9e		      cpy	ram_9E	;3	   
    531  0452		       90 9e		      bcc	Ld45b	;2/3	   
    532  0454		       24 3d		      bit	INPT5|$30	;3	    *
    533  0456		       30 cf		      bmi	Ld427	;2/3	    *
    534  0458		       4c 00 00 	      jmp	game_start	;3   =  20 *
    535  045b
    536  045b				   Ld45b
    537  045b		       a5 82		      lda	frame_counter	;3	   
    538  045d		       6a		      ror		;2	   
    539  045e		       90 c7		      bcc	Ld427	;2/3	   
    540  0460		       c8		      iny		;2	   
    541  0461		       84 cf		      sty	indy_y	;3	   
    542  0463		       d0 c2		      bne	Ld427	;2/3 =  14
    543  0465				   Ld465
    544  0465		       24 9c		      bit	ram_9C	;3	    *
    545  0467		       30 9c		      bmi	Ld46d	;2/3	    *
    546  0469		       a9 0e		      lda	#$0e	;2	    *
    547  046b		       85 a2		      sta	ram_A2	;3   =  10 *
    548  046d				   Ld46d
    549  046d		       a9 80		      lda	#$80	;2	    *
    550  046f		       85 9c		      sta	ram_9C	;3	    *
    551  0471		       24 3d		      bit	INPT5|$30	;3	    *
    552  0473		       30 b2		      bmi	Ld427	;2/3	    *
    553  0475		       a5 82		      lda	frame_counter	;3	    *
    554  0477		       29 0f		      and	#$0f	;2	    *
    555  0479		       d0 0f		      bne	Ld47d	;2/3	    *
    556  047b		       a9 05		      lda	#$05	;2   =  19 *
    557  047d				   Ld47d
    558  047d		       85 8c		      sta	ram_8C	;3	    *
    559  047f		       4c 00 00 	      jmp	reset_vars	;3   =   6 *
    560  0482
    561  0482				   Ld482
    562  0482		       24 93		      bit	ram_93	;3	    *
    563  0484		       70 93		      bvs	Ld489	;2/3 =   5 *
    564  0486				   Ld486
    565  0486		       4c 00 00 	      jmp	Ld51c	;3   =   3 *
    566  0489
    567  0489				   Ld489
    568  0489		       a5 82		      lda	frame_counter	;3	    *
    569  048b		       29 03		      and	#$03	;2	    *
    570  048d		       d0 03		      bne	Ld501	;2/3!	    *
    571  048f		       a6 dc		      ldx	snake_y	;3	    *
    572  0491		       e0 60		      cpx	#$60	;2	    *
    573  0493		       90 60		      bcc	Ld4a5	;2/3	    *
    574  0495		       24 9d		      bit	ram_9D	;3	    *
    575  0497		       30 ed		      bmi	Ld486	;2/3	    *
    576  0499		       a2 00		      ldx	#$00	;2	    *
    577  049b		       a5 c9		      lda	indy_x	;3	    *
    578  049d		       c9 20		      cmp	#$20	;2	    *
    579  049f		       b0 20		      bcs	Ld4a3	;2/3	    *
    580  04a1		       a9 20		      lda	#$20	;2   =  30 *
    581  04a3				   Ld4a3
    582  04a3		       85 cc		      sta	ram_CC	;3   =   3 *
    583  04a5				   Ld4a5
    584  04a5		       e8		      inx		;2	    *
    585  04a6		       86 dc		      stx	snake_y	;3	    *
    586  04a8		       8a		      txa		;2	    *
    587  04a9		       38		      sec		;2	    *
    588  04aa		       e9 07		      sbc	#$07	;2	    *
    589  04ac		       10 07		      bpl	Ld4b0	;2/3	    *
    590  04ae		       a9 00		      lda	#$00	;2   =  15 *
    591  04b0				   Ld4b0
    592  04b0		       85 d2		      sta	ram_D2	;3	    *
    593  04b2		       29 f8		      and	#$f8	;2	    *
    594  04b4		       c5 d5		      cmp	ram_D5	;3	    *
    595  04b6		       f0 d5		      beq	Ld501	;2/3!	    *
    596  04b8		       85 d5		      sta	ram_D5	;3	    *
    597  04ba		       a5 d4		      lda	ram_D4	;3	    *
    598  04bc		       29 03		      and	#$03	;2	    *
    599  04be		       aa		      tax		;2	    *
    600  04bf		       a5 d4		      lda	ram_D4	;3	    *
    601  04c1		       4a		      lsr		;2	    *
    602  04c2		       4a		      lsr		;2	    *
    603  04c3		       a8		      tay		;2	    *
    604  04c4		       bd 00 00 	      lda	Ldbff,x	;4	    *
    605  04c7		       18		      clc		;2	    *
    606  04c8		       79 00 00 	      adc	Ldbff,y	;4	    *
    607  04cb		       18		      clc		;2	    *
    608  04cc		       65 cc		      adc	ram_CC	;3	    *
    609  04ce		       a2 00		      ldx	#$00	;2	    *
    610  04d0		       c9 87		      cmp	#$87	;2	    *
    611  04d2		       b0 87		      bcs	Ld4e2	;2/3	    *
    612  04d4		       c9 18		      cmp	#$18	;2	    *
    613  04d6		       90 18		      bcc	Ld4de	;2/3	    *
    614  04d8		       e5 c9		      sbc	indy_x	;3	    *
    615  04da		       e9 03		      sbc	#$03	;2	    *
    616  04dc		       10 03		      bpl	Ld4e2	;2/3 =  61 *
    617  04de				   Ld4de
    618  04de		       e8		      inx		;2	    *
    619  04df		       e8		      inx		;2	    *
    620  04e0		       49 ff		      eor	#$ff	;2   =   6 *
    621  04e2				   Ld4e2
    622  04e2		       c9 09		      cmp	#$09	;2	    *
    623  04e4		       90 09		      bcc	Ld4e7	;2/3	    *
    624  04e6		       e8		      inx		;2   =   6 *
    625  04e7				   Ld4e7
    626  04e7		       8a		      txa		;2	    *
    627  04e8		       0a		      asl		;2	    *
    628  04e9		       0a		      asl		;2	    *
    629  04ea		       85 84		      sta	ram_84	;3	    *
    630  04ec		       a5 d4		      lda	ram_D4	;3	    *
    631  04ee		       29 03		      and	#$03	;2	    *
    632  04f0		       aa		      tax		;2	    *
    633  04f1		       bd 00 00 	      lda	Ldbff,x	;4	    *
    634  04f4		       18		      clc		;2	    *
    635  04f5		       65 cc		      adc	ram_CC	;3	    *
    636  04f7		       85 cc		      sta	ram_CC	;3	    *
    637  04f9		       a5 d4		      lda	ram_D4	;3	    *
    638  04fb		       4a		      lsr		;2	    *
    639  04fc		       4a		      lsr		;2	    *
    640  04fd		       05 84		      ora	ram_84	;3	    *
    641  04ff		       85 d4		      sta	ram_D4	;3   =  41 *
    642  0501				   Ld501
    643  0501		       a5 d4		      lda	ram_D4	;3	    *
    644  0503		       29 03		      and	#$03	;2	    *
    645  0505		       aa		      tax		;2	    *
    646  0506		       bd 00 00 	      lda	Ldbfb,x	;4	    *
    647  0509		       85 d6		      sta	ram_D6	;3	    *
    648  050b		       a9 fa		      lda	#$fa	;2	    *
    649  050d		       85 d7		      sta	ram_D7	;3	    *
    650  050f		       a5 d4		      lda	ram_D4	;3	    *
    651  0511		       4a		      lsr		;2	    *
    652  0512		       4a		      lsr		;2	    *
    653  0513		       aa		      tax		;2	    *
    654  0514		       bd 00 00 	      lda	Ldbfb,x	;4	    *
    655  0517		       38		      sec		;2	    *
    656  0518		       e9 08		      sbc	#$08	;2	    *
    657  051a		       85 d8		      sta	ram_D8	;3   =  39 *
    658  051c				   Ld51c
    659  051c		       24 9d		      bit	ram_9D	;3	    *
    660  051e		       10 9d		      bpl	Ld523	;2/3	    *
    661  0520		       4c 00 00 	      jmp	Ld802	;3   =   8 *
    662  0523
    663  0523				   Ld523
    664  0523		       24 a1		      bit	ram_A1	;3	    *
    665  0525		       10 a1		      bpl	Ld52a	;2/3	    *
    666  0527		       4c 00 00 	      jmp	Ld78c	;3   =   8 *
    667  052a
    668  052a				   Ld52a
    669  052a		       a5 82		      lda	frame_counter	;3	    *
    670  052c		       6a		      ror		;2	    *
    671  052d		       90 82		      bcc	Ld532	;2/3	    *
    672  052f		       4c 00 00 	      jmp	Ld627	;3   =  10 *
    673  0532
    674  0532				   Ld532
    675  0532		       a6 81		      ldx	room_num	;3	    *
    676  0534		       e0 05		      cpx	#$05	;2	    *
    677  0536		       f0 05		      beq	Ld579	;2/3	    *
    678  0538		       24 8d		      bit	ram_8D	;3	    *
    679  053a		       50 8d		      bvc	Ld56e	;2/3	    *
    680  053c		       a6 cb		      ldx	ram_CB	;3	    *
    681  053e		       8a		      txa		;2	    *
    682  053f		       38		      sec		;2	    *
    683  0540		       e5 c9		      sbc	indy_x	;3	    *
    684  0542		       a8		      tay		;2	    *
    685  0543		       ad 80 02 	      lda	SWCHA	;4	    *
    686  0546		       6a		      ror		;2	    *
    687  0547		       90 80		      bcc	Ld55b	;2/3	    *
    688  0549		       6a		      ror		;2	    *
    689  054a		       b0 80		      bcs	Ld579	;2/3	    *
    690  054c		       c0 09		      cpy	#$09	;2	    *
    691  054e		       90 09		      bcc	Ld579	;2/3	    *
    692  0550		       98		      tya		;2	    *
    693  0551		       10 09		      bpl	Ld556	;2/3 =  44 *
    694  0553				   Ld553
    695  0553		       e8		      inx		;2	    *
    696  0554		       d0 09		      bne	Ld557	;2/3 =   4 *
    697  0556				   Ld556
    698  0556		       ca		      dex		;2   =   2 *
    699  0557				   Ld557
    700  0557		       86 cb		      stx	ram_CB	;3	    *
    701  0559		       d0 cb		      bne	Ld579	;2/3 =   5 *
    702  055b				   Ld55b
    703  055b		       e0 75		      cpx	#$75	;2	    *
    704  055d		       b0 75		      bcs	Ld579	;2/3	    *
    705  055f		       e0 1a		      cpx	#$1a	;2	    *
    706  0561		       90 1a		      bcc	Ld579	;2/3	    *
    707  0563		       88		      dey		;2	    *
    708  0564		       88		      dey		;2	    *
    709  0565		       c0 07		      cpy	#$07	;2	    *
    710  0567		       90 07		      bcc	Ld579	;2/3	    *
    711  0569		       98		      tya		;2	    *
    712  056a		       10 e7		      bpl	Ld553	;2/3	    *
    713  056c		       30 e8		      bmi	Ld556	;2/3 =  22 *
    714  056e				   Ld56e
    715  056e		       24 b4		      bit	ram_B4	;3	    *
    716  0570		       30 b4		      bmi	Ld579	;2/3	    *
    717  0572		       24 8a		      bit	ram_8A	;3	    *
    718  0574		       10 8a		      bpl	Ld57c	;2/3	    *
    719  0576		       6a		      ror		;2	    *
    720  0577		       90 8a		      bcc	Ld57c	;2/3 =  14 *
    721  0579				   Ld579
    722  0579		       4c 00 00 	      jmp	Ld5e0	;3   =   3 *
    723  057c
    724  057c				   Ld57c
    725  057c		       a2 01		      ldx	#$01	;2	    *
    726  057e		       ad 80 02 	      lda	SWCHA	;4	    *
    727  0581		       85 85		      sta	ram_85	;3	    *
    728  0583		       29 0f		      and	#$0f	;2	    *
    729  0585		       c9 0f		      cmp	#$0f	;2	    *
    730  0587		       f0 f0		      beq	Ld579	;2/3	    *
    731  0589		       85 92		      sta	indy_dir	;3	    *
    732  058b		       20 00 00 	      jsr	move_enemy	;6	    *
    733  058e		       a6 81		      ldx	room_num	;3	    *
    734  0590		       a0 00		      ldy	#$00	;2	    *
    735  0592		       84 84		      sty	ram_84	;3	    *
    736  0594		       f0 84		      beq	Ld599	;2/3 =  34 *
    737  0596				   Ld596
    738  0596		       aa		      tax		;2	    *
    739  0597		       e6 84		      inc	ram_84	;5   =   7 *
    740  0599				   Ld599
    741  0599		       a5 c9		      lda	indy_x	;3	    *
    742  059b		       48		      pha		;3	    *
    743  059c		       a5 cf		      lda	indy_y	;3	    *
    744  059e		       a4 84		      ldy	ram_84	;3	    *
    745  05a0		       c0 02		      cpy	#$02	;2	    *
    746  05a2		       b0 02		      bcs	Ld5ac	;2/3	    *
    747  05a4		       85 86		      sta	ram_86	;3	    *
    748  05a6		       68		      pla		;4	    *
    749  05a7		       85 87		      sta	ram_87	;3	    *
    750  05a9		       4c 00 00 	      jmp	Ld5b1	;3   =  29 *
    751  05ac
    752  05ac				   Ld5ac
    753  05ac		       85 87		      sta	ram_87	;3	    *
    754  05ae		       68		      pla		;4	    *
    755  05af		       85 86		      sta	ram_86	;3   =  10 *
    756  05b1				   Ld5b1
    757  05b1		       66 85		      ror	ram_85	;5	    *
    758  05b3		       b0 85		      bcs	Ld5d1	;2/3	    *
    759  05b5		       20 00 00 	      jsr	Ld97c	;6	    *
    760  05b8		       b0 00		      bcs	Ld5db	;2/3	    *
    761  05ba		       50 00		      bvc	Ld5d1	;2/3	    *
    762  05bc		       a4 84		      ldy	ram_84	;3	    *
    763  05be		       b9 00 00 	      lda	Ldf6c,y	;4	    *
    764  05c1		       c0 02		      cpy	#$02	;2	    *
    765  05c3		       b0 02		      bcs	Ld5cc	;2/3	    *
    766  05c5		       65 cf		      adc	indy_y	;3	    *
    767  05c7		       85 cf		      sta	indy_y	;3	    *
    768  05c9		       4c 00 00 	      jmp	Ld5d1	;3   =  37 *
    769  05cc
    770  05cc				   Ld5cc
    771  05cc		       18		      clc		;2	    *
    772  05cd		       65 c9		      adc	indy_x	;3	    *
    773  05cf		       85 c9		      sta	indy_x	;3   =   8 *
    774  05d1				   Ld5d1
    775  05d1		       8a		      txa		;2	    *
    776  05d2		       18		      clc		;2	    *
    777  05d3		       69 0d		      adc	#$0d	;2	    *
    778  05d5		       c9 34		      cmp	#$34	;2	    *
    779  05d7		       90 bd		      bcc	Ld596	;2/3	    *
    780  05d9		       b0 bd		      bcs	Ld5e0	;2/3 =  12 *
    781  05db				   Ld5db
    782  05db		       84 81		      sty	room_num	;3	    *
    783  05dd		       20 00 00 	      jsr	Ld878	;6   =   9 *
    784  05e0				   Ld5e0
    785  05e0		       24 3c		      bit	INPT4|$30	;3	    *
    786  05e2		       30 3c		      bmi	Ld5f5	;2/3	    *
    787  05e4		       24 9a		      bit	ram_9A	;3	    *
    788  05e6		       30 9a		      bmi	Ld624	;2/3!	    *
    789  05e8		       a5 8a		      lda	ram_8A	;3	    *
    790  05ea		       6a		      ror		;2	    *
    791  05eb		       b0 8a		      bcs	Ld5fa	;2/3	    *
    792  05ed		       38		      sec		;2	    *
    793  05ee		       20 00 00 	      jsr	Lda10	;6	    *
    794  05f1		       e6 8a		      inc	ram_8A	;5	    *
    795  05f3		       d0 8a		      bne	Ld5fa	;2/3 =  32 *
    796  05f5				   Ld5f5
    797  05f5		       66 8a		      ror	ram_8A	;5	    *
    798  05f7		       18		      clc		;2	    *
    799  05f8		       26 8a		      rol	ram_8A	;5   =  12 *
    800  05fa				   Ld5fa
    801  05fa		       a5 91		      lda	ram_91	;3	    *
    802  05fc		       10 91		      bpl	Ld624	;2/3!	    *
    803  05fe		       29 1f		      and	#$1f	;2	    *
    804  0600		       c9 01		      cmp	#$01	;2	    *
    805  0602		       d0 01		      bne	Ld60c	;2/3	    *
    806  0604		       e6 a0		      inc	num_bullets	;5	    *
    807  0606		       e6 a0		      inc	num_bullets	;5	    *
    808  0608		       e6 a0		      inc	num_bullets	;5	    *
    809  060a		       d0 a0		      bne	Ld620	;2/3 =  28 *
    810  060c				   Ld60c
    811  060c		       c9 0b		      cmp	#$0b	;2	    *
    812  060e		       d0 0b		      bne	Ld61d	;2/3	    *
    813  0610		       66 b2		      ror	ram_B2	;5	    *
    814  0612		       38		      sec		;2	    *
    815  0613		       26 b2		      rol	ram_B2	;5	    *
    816  0615		       a2 45		      ldx	#$45	;2	    *
    817  0617		       86 df		      stx	ram_DF	;3	    *
    818  0619		       a2 7f		      ldx	#$7f	;2	    *
    819  061b		       86 d0		      stx	ram_D0	;3   =  26 *
    820  061d				   Ld61d
    821  061d		       20 00 00 	      jsr	Ldce9	;6   =   6 *
    822  0620				   Ld620
    823  0620		       a9 00		      lda	#$00	;2	    *
    824  0622		       85 91		      sta	ram_91	;3   =   5 *
    825  0624				   Ld624
    826  0624		       4c 00 00 	      jmp	Ld777	;3   =   3 *
    827  0627
    828  0627				   Ld627
    829  0627		       24 9a		      bit	ram_9A	;3	    *
    830  0629		       30 f9		      bmi	Ld624	;2/3	    *
    831  062b		       24 3d		      bit	INPT5|$30	;3	    *
    832  062d		       10 3d		      bpl	Ld638	;2/3	    *
    833  062f		       a9 fd		      lda	#$fd	;2	    *
    834  0631		       25 8a		      and	ram_8A	;3	    *
    835  0633		       85 8a		      sta	ram_8A	;3	    *
    836  0635		       4c 00 00 	      jmp	Ld777	;3   =  21 *
    837  0638
    838  0638				   Ld638
    839  0638		       a9 02		      lda	#$02	;2	    *
    840  063a		       24 8a		      bit	ram_8A	;3	    *
    841  063c		       d0 8a		      bne	Ld696	;2/3	    *
    842  063e		       05 8a		      ora	ram_8A	;3	    *
    843  0640		       85 8a		      sta	ram_8A	;3	    *
    844  0642		       a6 c5		      ldx	current_inv	;3	    *
    845  0644		       e0 05		      cpx	#$05	;2	    *
    846  0646		       f0 05		      beq	Ld64c	;2/3	    *
    847  0648		       e0 06		      cpx	#$06	;2	    *
    848  064a		       d0 06		      bne	Ld671	;2/3 =  24 *
    849  064c				   Ld64c
    850  064c		       a6 cf		      ldx	indy_y	;3	    *
    851  064e		       86 d1		      stx	ram_D1	;3	    *
    852  0650		       a4 c9		      ldy	indy_x	;3	    *
    853  0652		       84 cb		      sty	ram_CB	;3	    *
    854  0654		       a5 83		      lda	time_of_day	;3	    *
    855  0656		       69 04		      adc	#$04	;2	    *
    856  0658		       85 9b		      sta	ram_9B	;3	    *
    857  065a		       a9 80		      lda	#$80	;2	    *
    858  065c		       e0 35		      cpx	#$35	;2	    *
    859  065e		       b0 35		      bcs	Ld66c	;2/3	    *
    860  0660		       c0 64		      cpy	#$64	;2	    *
    861  0662		       90 64		      bcc	Ld66c	;2/3	    *
    862  0664		       a6 81		      ldx	room_num	;3	    *
    863  0666		       e0 02		      cpx	#$02	;2	    *
    864  0668		       d0 02		      bne	Ld66c	;2/3	    *
    865  066a		       09 01		      ora	#$01	;2   =  39 *
    866  066c				   Ld66c
    867  066c		       85 9a		      sta	ram_9A	;3	    *
    868  066e		       4c 00 00 	      jmp	Ld777	;3   =   6 *
    869  0671
    870  0671				   Ld671
    871  0671		       e0 03		      cpx	#$03	;2	    *
    872  0673		       d0 03		      bne	Ld68b	;2/3	    *
    873  0675		       86 a8		      stx	parachute_used	;3	    *
    874  0677		       a5 b4		      lda	ram_B4	;3	    *
    875  0679		       30 b4		      bmi	Ld696	;2/3	    *
    876  067b		       09 80		      ora	#$80	;2	    *
    877  067d		       85 b4		      sta	ram_B4	;3	    *
    878  067f		       a5 cf		      lda	indy_y	;3	    *
    879  0681		       e9 06		      sbc	#$06	;2	    *
    880  0683		       10 06		      bpl	Ld687	;2/3	    *
    881  0685		       a9 01		      lda	#$01	;2   =  26 *
    882  0687				   Ld687
    883  0687		       85 cf		      sta	indy_y	;3	    *
    884  0689		       10 cf		      bpl	Ld6d2	;2/3 =   5 *
    885  068b				   Ld68b
    886  068b		       24 8d		      bit	ram_8D	;3	    *
    887  068d		       50 8d		      bvc	Ld6d5	;2/3	    *
    888  068f		       24 35		      bit	CXM1FB|$30	;3	    *
    889  0691		       30 35		      bmi	Ld699	;2/3	    *
    890  0693		       20 ce d2 	      jsr	Ld2ce	;6   =  16 *
    891  0696				   Ld696
    892  0696		       4c 00 00 	      jmp	Ld777	;3   =   3 *
    893  0699
    894  0699				   Ld699
    895  0699		       a5 d1		      lda	ram_D1	;3	    *
    896  069b		       4a		      lsr		;2	    *
    897  069c		       38		      sec		;2	    *
    898  069d		       e9 06		      sbc	#$06	;2	    *
    899  069f		       18		      clc		;2	    *
    900  06a0		       65 df		      adc	ram_DF	;3	    *
    901  06a2		       4a		      lsr		;2	    *
    902  06a3		       4a		      lsr		;2	    *
    903  06a4		       4a		      lsr		;2	    *
    904  06a5		       4a		      lsr		;2	    *
    905  06a6		       c9 08		      cmp	#$08	;2	    *
    906  06a8		       90 08		      bcc	Ld6ac	;2/3	    *
    907  06aa		       a9 07		      lda	#$07	;2   =  28 *
    908  06ac				   Ld6ac
    909  06ac		       85 84		      sta	ram_84	;3	    *
    910  06ae		       a5 cb		      lda	ram_CB	;3	    *
    911  06b0		       38		      sec		;2	    *
    912  06b1		       e9 10		      sbc	#$10	;2	    *
    913  06b3		       29 60		      and	#$60	;2	    *
    914  06b5		       4a		      lsr		;2	    *
    915  06b6		       4a		      lsr		;2	    *
    916  06b7		       65 84		      adc	ram_84	;3	    *
    917  06b9		       a8		      tay		;2	    *
    918  06ba		       b9 00 00 	      lda	Ldf7c,y	;4	    *
    919  06bd		       85 8b		      sta	ram_8B	;3	    *
    920  06bf		       a6 d1		      ldx	ram_D1	;3	    *
    921  06c1		       ca		      dex		;2	    *
    922  06c2		       86 d1		      stx	ram_D1	;3	    *
    923  06c4		       86 cf		      stx	indy_y	;3	    *
    924  06c6		       a6 cb		      ldx	ram_CB	;3	    *
    925  06c8		       ca		      dex		;2	    *
    926  06c9		       ca		      dex		;2	    *
    927  06ca		       86 cb		      stx	ram_CB	;3	    *
    928  06cc		       86 c9		      stx	indy_x	;3	    *
    929  06ce		       a9 46		      lda	#$46	;2	    *
    930  06d0		       85 8d		      sta	ram_8D	;3   =  57 *
    931  06d2				   Ld6d2
    932  06d2		       4c 00 00 	      jmp	Ld773	;3   =   3 *
    933  06d5
    934  06d5				   Ld6d5
    935  06d5		       e0 0b		      cpx	#$0b	;2	    *
    936  06d7		       d0 0b		      bne	Ld6f7	;2/3	    *
    937  06d9		       a5 cf		      lda	indy_y	;3	    *
    938  06db		       c9 41		      cmp	#$41	;2	    *
    939  06dd		       90 b7		      bcc	Ld696	;2/3	    *
    940  06df		       24 37		      bit	CXPPMM|$30	;3	    *
    941  06e1		       10 b3		      bpl	Ld696	;2/3	    *
    942  06e3		       e6 97		      inc	ram_97	;5	    *
    943  06e5		       d0 af		      bne	Ld696	;2/3	    *
    944  06e7		       a4 96		      ldy	ram_96	;3	    *
    945  06e9		       88		      dey		;2	    *
    946  06ea		       c0 54		      cpy	#$54	;2	    *
    947  06ec		       b0 54		      bcs	Ld6ef	;2/3	    *
    948  06ee		       c8		      iny		;2   =  34 *
    949  06ef				   Ld6ef
    950  06ef		       84 96		      sty	ram_96	;3	    *
    951  06f1		       a9 0a		      lda	#$0a	;2	    *
    952  06f3		       85 a7		      sta	shovel_used	;3	    *
    953  06f5		       d0 9f		      bne	Ld696	;2/3 =  10 *
    954  06f7				   Ld6f7
    955  06f7		       e0 10		      cpx	#$10	;2	    *
    956  06f9		       d0 10		      bne	Ld71e	;2/3!	    *
    957  06fb		       a6 81		      ldx	room_num	;3	    *
    958  06fd		       e0 00		      cpx	#$00	;2	    *
    959  06ff		       f0 95		      beq	Ld696	;2/3!	    *
    960  0701		       a9 09		      lda	#$09	;2	    *
    961  0703		       85 a9		      sta	ankh_used	;3	    *
    962  0705		       85 81		      sta	room_num	;3	    *
    963  0707		       20 00 00 	      jsr	Ld878	;6	    *
    964  070a		       a9 4c		      lda	#$4c	;2	    *
    965  070c		       85 c9		      sta	indy_x	;3	    *
    966  070e		       85 cb		      sta	ram_CB	;3	    *
    967  0710		       a9 46		      lda	#$46	;2	    *
    968  0712		       85 cf		      sta	indy_y	;3	    *
    969  0714		       85 d1		      sta	ram_D1	;3	    *
    970  0716		       85 8d		      sta	ram_8D	;3	    *
    971  0718		       a9 1d		      lda	#$1d	;2	    *
    972  071a		       85 df		      sta	ram_DF	;3	    *
    973  071c		       d0 df		      bne	Ld777	;2/3 =  51 *
    974  071e				   Ld71e
    975  071e		       ad 80 02 	      lda	SWCHA	;4	    *
    976  0721		       29 0f		      and	#$0f	;2	    *
    977  0723		       c9 0f		      cmp	#$0f	;2	    *
    978  0725		       f0 0f		      beq	Ld777	;2/3	    *
    979  0727		       e0 0d		      cpx	#$0d	;2	    *
    980  0729		       d0 0d		      bne	Ld747	;2/3	    *
    981  072b		       24 8f		      bit	ram_8F	;3	    *
    982  072d		       30 8f		      bmi	Ld777	;2/3	    *
    983  072f		       a4 a0		      ldy	num_bullets	;3	    *
    984  0731		       30 a0		      bmi	Ld777	;2/3	    *
    985  0733		       c6 a0		      dec	num_bullets	;5	    *
    986  0735		       09 80		      ora	#$80	;2	    *
    987  0737		       85 8f		      sta	ram_8F	;3	    *
    988  0739		       a5 cf		      lda	indy_y	;3	    *
    989  073b		       69 04		      adc	#$04	;2	    *
    990  073d		       85 d1		      sta	ram_D1	;3	    *
    991  073f		       a5 c9		      lda	indy_x	;3	    *
    992  0741		       69 04		      adc	#$04	;2	    *
    993  0743		       85 cb		      sta	ram_CB	;3	    *
    994  0745		       d0 cb		      bne	Ld773	;2/3 =  52 *
    995  0747				   Ld747
    996  0747		       e0 0a		      cpx	#$0a	;2	    *
    997  0749		       d0 0a		      bne	Ld777	;2/3	    *
    998  074b		       09 80		      ora	#$80	;2	    *
    999  074d		       85 8d		      sta	ram_8D	;3	    *
   1000  074f		       a0 04		      ldy	#$04	;2	    *
   1001  0751		       a2 05		      ldx	#$05	;2	    *
   1002  0753		       6a		      ror		;2	    *
   1003  0754		       b0 05		      bcs	Ld758	;2/3	    *
   1004  0756		       a2 fa		      ldx	#$fa	;2   =  19 *
   1005  0758				   Ld758
   1006  0758		       6a		      ror		;2	    *
   1007  0759		       b0 fa		      bcs	Ld75d	;2/3	    *
   1008  075b		       a2 0f		      ldx	#$0f	;2   =   6 *
   1009  075d				   Ld75d
   1010  075d		       6a		      ror		;2	    *
   1011  075e		       b0 0f		      bcs	Ld762	;2/3	    *
   1012  0760		       a0 f7		      ldy	#$f7	;2   =   6 *
   1013  0762				   Ld762
   1014  0762		       6a		      ror		;2	    *
   1015  0763		       b0 f7		      bcs	Ld767	;2/3	    *
   1016  0765		       a0 10		      ldy	#$10	;2   =   6 *
   1017  0767				   Ld767
   1018  0767		       98		      tya		;2	    *
   1019  0768		       18		      clc		;2	    *
   1020  0769		       65 c9		      adc	indy_x	;3	    *
   1021  076b		       85 cb		      sta	ram_CB	;3	    *
   1022  076d		       8a		      txa		;2	    *
   1023  076e		       18		      clc		;2	    *
   1024  076f		       65 cf		      adc	indy_y	;3	    *
   1025  0771		       85 d1		      sta	ram_D1	;3   =  20 *
   1026  0773				   Ld773
   1027  0773		       a9 0f		      lda	#$0f	;2	    *
   1028  0775		       85 a3		      sta	ram_A3	;3   =   5 *
   1029  0777				   Ld777
   1030  0777		       24 b4		      bit	ram_B4	;3	    *
   1031  0779		       10 b4		      bpl	Ld783	;2/3	    *
   1032  077b		       a9 63		      lda	#$63	;2	    *
   1033  077d		       85 d9		      sta	indy_anim	;3	    *
   1034  077f		       a9 0f		      lda	#$0f	;2	    *
   1035  0781		       d0 0f		      bne	Ld792	;2/3 =  14 *
   1036  0783				   Ld783
   1037  0783		       ad 80 02 	      lda	SWCHA	;4	    *
   1038  0786		       29 0f		      and	#$0f	;2	    *
   1039  0788		       c9 0f		      cmp	#$0f	;2	    *
   1040  078a		       d0 0f		      bne	Ld796	;2/3 =  10 *
   1041  078c				   Ld78c
   1042  078c		       a9 58		      lda	#$58	;2   =   2 *
   1043  078e				   Ld78e
   1044  078e		       85 d9		      sta	indy_anim	;3	    *
   1045  0790		       a9 0b		      lda	#$0b	;2   =   5 *
   1046  0792				   Ld792
   1047  0792		       85 db		      sta	indy_h	;3	    *
   1048  0794		       d0 db		      bne	Ld7b2	;2/3 =   5 *
   1049  0796				   Ld796
   1050  0796		       a9 03		      lda	#$03	;2	    *
   1051  0798		       24 8a		      bit	ram_8A	;3	    *
   1052  079a		       30 8a		      bmi	Ld79d	;2/3	    *
   1053  079c		       4a		      lsr		;2   =   9 *
   1054  079d				   Ld79d
   1055  079d		       25 82		      and	frame_counter	;3	    *
   1056  079f		       d0 82		      bne	Ld7b2	;2/3	    *
   1057  07a1		       a9 0b		      lda	#$0b	;2	    *
   1058  07a3		       18		      clc		;2	    *
   1059  07a4		       65 d9		      adc	indy_anim	;3	    *
   1060  07a6		       c9 58		      cmp	#$58	;2	    *
   1061  07a8		       90 e4		      bcc	Ld78e	;2/3	    *
   1062  07aa		       a9 02		      lda	#$02	;2	    *
   1063  07ac		       85 a3		      sta	ram_A3	;3	    *
   1064  07ae		       a9 00		      lda	#$00	;2	    *
   1065  07b0		       b0 dc		      bcs	Ld78e	;2/3 =  25 *
   1066  07b2				   Ld7b2
   1067  07b2		       a6 81		      ldx	room_num	;3	    *
   1068  07b4		       e0 09		      cpx	#$09	;2	    *
   1069  07b6		       f0 09		      beq	Ld7bc	;2/3	    *
   1070  07b8		       e0 0a		      cpx	#$0a	;2	    *
   1071  07ba		       d0 0a		      bne	Ld802	;2/3!=  11 *
   1072  07bc				   Ld7bc
   1073  07bc		       a5 82		      lda	frame_counter	;3	    *
   1074  07be		       24 8a		      bit	ram_8A	;3	    *
   1075  07c0		       10 8a		      bpl	Ld7c3	;2/3	    *
   1076  07c2		       4a		      lsr		;2   =  10 *
   1077  07c3				   Ld7c3
   1078  07c3		       a4 cf		      ldy	indy_y	;3	    *
   1079  07c5		       c0 27		      cpy	#$27	;2	    *
   1080  07c7		       f0 27		      beq	Ld802	;2/3!	    *
   1081  07c9		       a6 df		      ldx	ram_DF	;3	    *
   1082  07cb		       b0 df		      bcs	Ld7e8	;2/3	    *
   1083  07cd		       f0 df		      beq	Ld802	;2/3!	    *
   1084  07cf		       e6 cf		      inc	indy_y	;5	    *
   1085  07d1		       e6 d1		      inc	ram_D1	;5	    *
   1086  07d3		       29 02		      and	#$02	;2	    *
   1087  07d5		       d0 02		      bne	Ld802	;2/3!	    *
   1088  07d7		       c6 df		      dec	ram_DF	;5	    *
   1089  07d9		       e6 ce		      inc	enemy_y	;5	    *
   1090  07db		       e6 d0		      inc	ram_D0	;5	    *
   1091  07dd		       e6 d2		      inc	ram_D2	;5	    *
   1092  07df		       e6 ce		      inc	enemy_y	;5	    *
   1093  07e1		       e6 d0		      inc	ram_D0	;5	    *
   1094  07e3		       e6 d2		      inc	ram_D2	;5	    *
   1095  07e5		       4c 00 00 	      jmp	Ld802	;3   =  66 *
   1096  07e8
   1097  07e8				   Ld7e8
   1098  07e8		       e0 50		      cpx	#$50	;2	    *
   1099  07ea		       b0 50		      bcs	Ld802	;2/3!	    *
   1100  07ec		       c6 cf		      dec	indy_y	;5	    *
   1101  07ee		       c6 d1		      dec	ram_D1	;5	    *
   1102  07f0		       29 02		      and	#$02	;2	    *
   1103  07f2		       d0 02		      bne	Ld802	;2/3!	    *
   1104  07f4		       e6 df		      inc	ram_DF	;5	    *
   1105  07f6		       c6 ce		      dec	enemy_y	;5	    *
   1106  07f8		       c6 d0		      dec	ram_D0	;5	    *
   1107  07fa		       c6 d2		      dec	ram_D2	;5	    *
   1108  07fc		       c6 ce		      dec	enemy_y	;5	    *
   1109  07fe		       c6 d0		      dec	ram_D0	;5	    *
   1110  0800		       c6 d2		      dec	ram_D2	;5   =  53 *
   1111  0802				   Ld802
   1112  0802		       a9 28		      lda	#$28	;2	    *
   1113  0804		       85 88		      sta	ram_88	;3	    *
   1114  0806		       a9 f5		      lda	#$f5	;2	    *
   1115  0808		       85 89		      sta	ram_89	;3	    *
   1116  080a		       4c 00 00 	      jmp	Ldfad	;3   =  13 *
   1117  080d
   1118  080d				   Ld80d
   1119  080d		       a5 99		      lda	ram_99	;3	   
   1120  080f		       f0 99		      beq	Ld816	;2/3	   
   1121  0811		       20 00 00 	      jsr	Ldd59	;6	    *
   1122  0814		       a9 00		      lda	#$00	;2   =  13 *
   1123  0816				   Ld816
   1124  0816		       85 99		      sta	ram_99	;3	   
   1125  0818		       a6 81		      ldx	room_num	;3	   
   1126  081a		       bd 00 00 	      lda	Ldb00,x	;4	   
   1127  081d		       85 04		      sta	NUSIZ0	;3	   
   1128  081f		       a5 94		      lda	ram_94	;3	   
   1129  0821		       85 0a		      sta	CTRLPF	;3	   
   1130  0823		       bd 00 00 	      lda	Ldba0,x	;4	   
   1131  0826		       85 09		      sta	COLUBK	;3	   
   1132  0828		       bd 00 00 	      lda	Ldbae,x	;4	   
   1133  082b		       85 08		      sta	COLUPF	;3	   
   1134  082d		       bd 00 00 	      lda	Ldbc3,x	;4	   
   1135  0830		       85 06		      sta	COLUP0	;3	   
   1136  0832		       bd 00 00 	      lda	Ldbbc,x	;4	   
   1137  0835		       85 07		      sta	COLUP1	;3	   
   1138  0837		       e0 0b		      cpx	#$0b	;2	   
   1139  0839		       90 0b		      bcc	Ld84b	;2/3	   
   1140  083b		       a9 20		      lda	#$20	;2	   
   1141  083d		       85 d4		      sta	ram_D4	;3	   
   1142  083f		       a2 04		      ldx	#$04	;2   =  58
   1143  0841				   Ld841
   1144  0841		       b4 e5		      ldy	ram_E5,x	;4	   
   1145  0843		       b9 00 00 	      lda	Ldb00,y	;4	   
   1146  0846		       95 ee		      sta	ram_EE,x	;4	   
   1147  0848		       ca		      dex		;2	   
   1148  0849		       10 f6		      bpl	Ld841	;2/3 =  16
   1149  084b				   Ld84b
   1150  084b		       4c 06 d0 	      jmp	Ld006	;3   =   3
   1151  084e
   1152  084e				   Ld84e
   1153  084e		       a9 4d		      lda	#$4d	;2	   
   1154  0850		       85 c9		      sta	indy_x	;3	   
   1155  0852		       a9 48		      lda	#$48	;2	   
   1156  0854		       85 c8		      sta	enemy_x	;3	   
   1157  0856		       a9 1f		      lda	#$1f	;2	   
   1158  0858		       85 cf		      sta	indy_y	;3	   
   1159  085a		       60		      rts		;6   =  21
   1160  085b
   1161  085b				   Ld85b
   1162  085b		       a2 00		      ldx	#$00	;2	    *
   1163  085d		       8a		      txa		;2   =   4 *
   1164  085e				   Ld85e
   1165  085e		       95 df		      sta	ram_DF,x	;4	    *
   1166  0860		       95 e0		      sta	ram_E0,x	;4	    *
   1167  0862		       95 e1		      sta	PF1_data,x	;4	    *
   1168  0864		       95 e2		      sta	ram_E2,x	;4	    *
   1169  0866		       95 e3		      sta	PF2_data,x	;4	    *
   1170  0868		       95 e4		      sta	ram_E4,x	;4	    *
   1171  086a		       8a		      txa		;2	    *
   1172  086b		       d0 e4		      bne	Ld873	;2/3	    *
   1173  086d		       a2 06		      ldx	#$06	;2	    *
   1174  086f		       a9 14		      lda	#$14	;2	    *
   1175  0871		       d0 eb		      bne	Ld85e	;2/3 =  34 *
   1176  0873				   Ld873
   1177  0873		       a9 fc		      lda	#$fc	;2	    *
   1178  0875		       85 d7		      sta	ram_D7	;3	    *
   1179  0877		       60		      rts		;6   =  11 *
   1180  0878
   1181  0878				   Ld878
   1182  0878		       a5 9a		      lda	ram_9A	;3	   
   1183  087a		       10 9a		      bpl	Ld880	;2/3	   
   1184  087c		       09 40		      ora	#$40	;2	    *
   1185  087e		       85 9a		      sta	ram_9A	;3   =  10 *
   1186  0880				   Ld880
   1187  0880		       a9 5c		      lda	#$5c	;2	   
   1188  0882		       85 96		      sta	ram_96	;3	   
   1189  0884		       a2 00		      ldx	#$00	;2	   
   1190  0886		       86 93		      stx	ram_93	;3	   
   1191  0888		       86 b6		      stx	ram_B6	;3	   
   1192  088a		       86 8e		      stx	ram_8E	;3	   
   1193  088c		       86 90		      stx	ram_90	;3	   
   1194  088e		       a5 95		      lda	ram_95	;3	   
   1195  0890		       86 95		      stx	ram_95	;3	   
   1196  0892		       20 00 00 	      jsr	Ldd59	;6	   
   1197  0895		       26 8a		      rol	ram_8A	;5	   
   1198  0897		       18		      clc		;2	   
   1199  0898		       66 8a		      ror	ram_8A	;5	   
   1200  089a		       a6 81		      ldx	room_num	;3	   
   1201  089c		       bd 00 00 	      lda	Ldb92,x	;4	   
   1202  089f		       85 94		      sta	ram_94	;3	   
   1203  08a1		       e0 0d		      cpx	#$0d	;2	   
   1204  08a3		       f0 a9		      beq	Ld84e	;2/3	   
   1205  08a5		       e0 05		      cpx	#$05	;2	    *
   1206  08a7		       f0 05		      beq	Ld8b1	;2/3	    *
   1207  08a9		       e0 0c		      cpx	#$0c	;2	    *
   1208  08ab		       f0 0c		      beq	Ld8b1	;2/3	    *
   1209  08ad		       a9 00		      lda	#$00	;2	    *
   1210  08af		       85 8b		      sta	ram_8B	;3   =  70 *
   1211  08b1				   Ld8b1
   1212  08b1		       bd 00 00 	      lda	Ldbee,x	;4	    *
   1213  08b4		       85 dd		      sta	emy_anim	;3	    *
   1214  08b6		       bd 00 00 	      lda	Ldbe1,x	;4	    *
   1215  08b9		       85 de		      sta	ram_DE	;3	    *
   1216  08bb		       bd 00 00 	      lda	Ldbc9,x	;4	    *
   1217  08be		       85 dc		      sta	snake_y	;3	    *
   1218  08c0		       bd 00 00 	      lda	Ldbd4,x	;4	    *
   1219  08c3		       85 c8		      sta	enemy_x	;3	    *
   1220  08c5		       bd 00 00 	      lda	Ldc0e,x	;4	    *
   1221  08c8		       85 ca		      sta	ram_CA	;3	    *
   1222  08ca		       bd 00 00 	      lda	Ldc1b,x	;4	    *
   1223  08cd		       85 d0		      sta	ram_D0	;3	    *
   1224  08cf		       e0 0b		      cpx	#$0b	;2	    *
   1225  08d1		       b0 88		      bcs	Ld85b	;2/3	    *
   1226  08d3		       7d 00 00 	      adc	Ldc03,x	;4	    *
   1227  08d6		       85 e0		      sta	ram_E0	;3	    *
   1228  08d8		       bd 00 00 	      lda	Ldc28,x	;4	    *
   1229  08db		       85 e1		      sta	PF1_data	;3	    *
   1230  08dd		       bd 00 00 	      lda	Ldc33,x	;4	    *
   1231  08e0		       85 e2		      sta	ram_E2	;3	    *
   1232  08e2		       bd 00 00 	      lda	Ldc3e,x	;4	    *
   1233  08e5		       85 e3		      sta	PF2_data	;3	    *
   1234  08e7		       bd 00 00 	      lda	Ldc49,x	;4	    *
   1235  08ea		       85 e4		      sta	ram_E4	;3	    *
   1236  08ec		       a9 55		      lda	#$55	;2	    *
   1237  08ee		       85 d2		      sta	ram_D2	;3	    *
   1238  08f0		       85 d1		      sta	ram_D1	;3	    *
   1239  08f2		       e0 06		      cpx	#$06	;2	    *
   1240  08f4		       b0 06		      bcs	Ld93e	;2/3!	    *
   1241  08f6		       a9 00		      lda	#$00	;2	    *
   1242  08f8		       e0 00		      cpx	#$00	;2	    *
   1243  08fa		       f0 00		      beq	Ld91b	;2/3!	    *
   1244  08fc		       e0 02		      cpx	#$02	;2	    *
   1245  08fe		       f0 02		      beq	Ld92a	;2/3	    *
   1246  0900		       85 ce		      sta	enemy_y	;3   = 106 *
   1247  0902				   Ld902
   1248  0902		       a0 4f		      ldy	#$4f	;2	    *
   1249  0904		       e0 02		      cpx	#$02	;2	    *
   1250  0906		       90 02		      bcc	Ld918	;2/3	    *
   1251  0908		       b5 af		      lda	ram_AF,x	;4	    *
   1252  090a		       6a		      ror		;2	    *
   1253  090b		       90 af		      bcc	Ld918	;2/3	    *
   1254  090d		       bc 00 00 	      ldy	Ldf72,x	;4	    *
   1255  0910		       e0 03		      cpx	#$03	;2	    *
   1256  0912		       d0 03		      bne	Ld918	;2/3	    *
   1257  0914		       a9 ff		      lda	#$ff	;2	    *
   1258  0916		       85 d0		      sta	ram_D0	;3   =  27 *
   1259  0918				   Ld918
   1260  0918		       84 df		      sty	ram_DF	;3	    *
   1261  091a		       60		      rts		;6   =   9 *
   1262  091b
   1263  091b				   Ld91b
   1264  091b		       a5 af		      lda	ram_AF	;3	    *
   1265  091d		       29 78		      and	#$78	;2	    *
   1266  091f		       85 af		      sta	ram_AF	;3	    *
   1267  0921		       a9 1a		      lda	#$1a	;2	    *
   1268  0923		       85 ce		      sta	enemy_y	;3	    *
   1269  0925		       a9 26		      lda	#$26	;2	    *
   1270  0927		       85 df		      sta	ram_DF	;3	    *
   1271  0929		       60		      rts		;6   =  24 *
   1272  092a
   1273  092a				   Ld92a
   1274  092a		       a5 b1		      lda	ram_B1	;3	    *
   1275  092c		       29 07		      and	#$07	;2	    *
   1276  092e		       4a		      lsr		;2	    *
   1277  092f		       d0 07		      bne	Ld935	;2/3	    *
   1278  0931		       a0 ff		      ldy	#$ff	;2	    *
   1279  0933		       84 d0		      sty	ram_D0	;3   =  14 *
   1280  0935				   Ld935
   1281  0935		       a8		      tay		;2	    *
   1282  0936		       b9 00 00 	      lda	Ldf70,y	;4	    *
   1283  0939		       85 ce		      sta	enemy_y	;3	    *
   1284  093b		       4c 02 d9 	      jmp	Ld902	;3   =  12 *
   1285  093e
   1286  093e				   Ld93e
   1287  093e		       e0 08		      cpx	#$08	;2	    *
   1288  0940		       f0 08		      beq	Ld950	;2/3	    *
   1289  0942		       e0 06		      cpx	#$06	;2	    *
   1290  0944		       d0 06		      bne	Ld968	;2/3	    *
   1291  0946		       a0 00		      ldy	#$00	;2	    *
   1292  0948		       84 d8		      sty	ram_D8	;3	    *
   1293  094a		       a0 40		      ldy	#$40	;2	    *
   1294  094c		       84 e5		      sty	ram_E5	;3	    *
   1295  094e		       d0 e5		      bne	Ld958	;2/3 =  20 *
   1296  0950				   Ld950
   1297  0950		       a0 ff		      ldy	#$ff	;2	    *
   1298  0952		       84 e5		      sty	ram_E5	;3	    *
   1299  0954		       c8		      iny		;2	    *
   1300  0955		       84 d8		      sty	ram_D8	;3	    *
   1301  0957		       c8		      iny		;2   =  12 *
   1302  0958				   Ld958
   1303  0958		       84 e6		      sty	ram_E6	;3	    *
   1304  095a		       84 e7		      sty	ram_E7	;3	    *
   1305  095c		       84 e8		      sty	ram_E8	;3	    *
   1306  095e		       84 e9		      sty	ram_E9	;3	    *
   1307  0960		       84 ea		      sty	ram_EA	;3	    *
   1308  0962		       a0 39		      ldy	#$39	;2	    *
   1309  0964		       84 d4		      sty	ram_D4	;3	    *
   1310  0966		       84 d5		      sty	ram_D5	;3   =  23 *
   1311  0968				   Ld968
   1312  0968		       e0 09		      cpx	#$09	;2	    *
   1313  096a		       d0 09		      bne	Ld977	;2/3	    *
   1314  096c		       a4 cf		      ldy	indy_y	;3	    *
   1315  096e		       c0 49		      cpy	#$49	;2	    *
   1316  0970		       90 49		      bcc	Ld977	;2/3	    *
   1317  0972		       a9 50		      lda	#$50	;2	    *
   1318  0974		       85 df		      sta	ram_DF	;3	    *
   1319  0976		       60		      rts		;6   =  22 *
   1320  0977
   1321  0977				   Ld977
   1322  0977		       a9 00		      lda	#$00	;2	    *
   1323  0979		       85 df		      sta	ram_DF	;3	    *
   1324  097b		       60		      rts		;6   =  11 *
   1325  097c
   1326  097c				   Ld97c
   1327  097c		       bc 00 00 	      ldy	Lde00,x	;4	    *
   1328  097f		       c4 86		      cpy	ram_86	;3	    *
   1329  0981		       f0 86		      beq	Ld986	;2/3	    *
   1330  0983		       18		      clc		;2	    *
   1331  0984		       b8		      clv		;2	    *
   1332  0985		       60		      rts		;6   =  19 *
   1333  0986
   1334  0986				   Ld986
   1335  0986		       bc 00 00 	      ldy	Lde34,x	;4	    *
   1336  0989		       30 00		      bmi	Ld99b	;2/3 =   6 *
   1337  098b				   Ld98b
   1338  098b		       bd 00 00 	      lda	Ldf04,x	;4	    *
   1339  098e		       f0 00		      beq	Ld992	;2/3 =   6 *
   1340  0990				   Ld990
   1341  0990		       85 cf		      sta	indy_y	;3   =   3 *
   1342  0992				   Ld992
   1343  0992		       bd 00 00 	      lda	Ldf38,x	;4	    *
   1344  0995		       f0 00		      beq	Ld999	;2/3	    *
   1345  0997		       85 c9		      sta	indy_x	;3   =   9 *
   1346  0999				   Ld999
   1347  0999		       38		      sec		;2	    *
   1348  099a		       60		      rts		;6   =   8 *
   1349  099b
   1350  099b				   Ld99b
   1351  099b		       c8		      iny		;2	    *
   1352  099c		       f0 c9		      beq	Ld9f9	;2/3	    *
   1353  099e		       c8		      iny		;2	    *
   1354  099f		       d0 c9		      bne	Ld9b6	;2/3	    *
   1355  09a1		       bc 00 00 	      ldy	Lde68,x	;4	    *
   1356  09a4		       c4 87		      cpy	ram_87	;3	    *
   1357  09a6		       90 87		      bcc	Ld9af	;2/3	    *
   1358  09a8		       bc 00 00 	      ldy	Lde9c,x	;4	    *
   1359  09ab		       30 00		      bmi	Ld9c7	;2/3	    *
   1360  09ad		       10 dc		      bpl	Ld98b	;2/3 =  25 *
   1361  09af				   Ld9af
   1362  09af		       bc 00 00 	      ldy	Lded0,x	;4	    *
   1363  09b2		       30 00		      bmi	Ld9c7	;2/3	    *
   1364  09b4		       10 d5		      bpl	Ld98b	;2/3 =   8 *
   1365  09b6				   Ld9b6
   1366  09b6		       a5 87		      lda	ram_87	;3	    *
   1367  09b8		       dd 00 00 	      cmp	Lde68,x	;4	    *
   1368  09bb		       90 00		      bcc	Ld9f9	;2/3	    *
   1369  09bd		       dd 00 00 	      cmp	Lde9c,x	;4	    *
   1370  09c0		       b0 00		      bcs	Ld9f9	;2/3	    *
   1371  09c2		       bc 00 00 	      ldy	Lded0,x	;4	    *
   1372  09c5		       10 c4		      bpl	Ld98b	;2/3 =  21 *
   1373  09c7				   Ld9c7
   1374  09c7		       c8		      iny		;2	    *
   1375  09c8		       30 c4		      bmi	Ld9d4	;2/3	    *
   1376  09ca		       a0 08		      ldy	#$08	;2	    *
   1377  09cc		       24 af		      bit	ram_AF	;3	    *
   1378  09ce		       10 bb		      bpl	Ld98b	;2/3	    *
   1379  09d0		       a9 41		      lda	#$41	;2	    *
   1380  09d2		       d0 bc		      bne	Ld990	;2/3 =  15 *
   1381  09d4				   Ld9d4
   1382  09d4		       c8		      iny		;2	    *
   1383  09d5		       d0 bc		      bne	Ld9e1	;2/3	    *
   1384  09d7		       a5 b5		      lda	ram_B5	;3	    *
   1385  09d9		       29 0f		      and	#$0f	;2	    *
   1386  09db		       d0 0f		      bne	Ld9f9	;2/3	    *
   1387  09dd		       a0 06		      ldy	#$06	;2	    *
   1388  09df		       d0 aa		      bne	Ld98b	;2/3 =  15 *
   1389  09e1				   Ld9e1
   1390  09e1		       c8		      iny		;2	    *
   1391  09e2		       d0 aa		      bne	Ld9f0	;2/3	    *
   1392  09e4		       a5 b5		      lda	ram_B5	;3	    *
   1393  09e6		       29 0f		      and	#$0f	;2	    *
   1394  09e8		       c9 0a		      cmp	#$0a	;2	    *
   1395  09ea		       b0 0a		      bcs	Ld9f9	;2/3	    *
   1396  09ec		       a0 06		      ldy	#$06	;2	    *
   1397  09ee		       d0 9b		      bne	Ld98b	;2/3 =  17 *
   1398  09f0				   Ld9f0
   1399  09f0		       c8		      iny		;2	    *
   1400  09f1		       d0 9b		      bne	Ld9fe	;2/3	    *
   1401  09f3		       a0 01		      ldy	#$01	;2	    *
   1402  09f5		       24 8a		      bit	ram_8A	;3	    *
   1403  09f7		       30 92		      bmi	Ld98b	;2/3 =  11 *
   1404  09f9				   Ld9f9
   1405  09f9		       18		      clc		;2	    *
   1406  09fa		       2c 00 00 	      bit	Ld9fd	;4   =   6 *
   1407  09fd
   1408  09fd				   Ld9fd
   1409  09fd		       60		      .byte.b	$60	; $d9fd (D)
   1410  09fe
   1411  09fe				   Ld9fe
   1412  09fe		       c8		      iny		;2	    *
   1413  09ff		       d0 f8		      bne	Ld9f9	;2/3!	    *
   1414  0a01		       a0 06		      ldy	#$06	;2	    *
   1415  0a03		       a9 0e		      lda	#$0e	;2	    *
   1416  0a05		       c5 c5		      cmp	current_inv	;3	    *
   1417  0a07		       d0 f0		      bne	Ld9f9	;2/3!	    *
   1418  0a09		       24 3d		      bit	INPT5|$30	;3	    *
   1419  0a0b		       30 ec		      bmi	Ld9f9	;2/3!	    *
   1420  0a0d		       4c 8b d9 	      jmp	Ld98b	;3   =  21 *
   1421  0a10
   1422  0a10				   Lda10
   1423  0a10		       a4 c4		      ldy	ram_C4	;3	    *
   1424  0a12		       d0 c4		      bne	Lda16	;2/3	    *
   1425  0a14		       18		      clc		;2	    *
   1426  0a15		       60		      rts		;6   =  13 *
   1427  0a16
   1428  0a16				   Lda16
   1429  0a16		       b0 c4		      bcs	Lda40	;2/3	    *
   1430  0a18		       a8		      tay		;2	    *
   1431  0a19		       0a		      asl		;2	    *
   1432  0a1a		       0a		      asl		;2	    *
   1433  0a1b		       0a		      asl		;2	    *
   1434  0a1c		       a2 0a		      ldx	#$0a	;2   =  12 *
   1435  0a1e				   Lda1e
   1436  0a1e		       d5 b7		      cmp	inv_slot1_lo,x	;4	    *
   1437  0a20		       d0 b7		      bne	Lda3a	;2/3	    *
   1438  0a22		       e4 c3		      cpx	cursor_pos	;3	    *
   1439  0a24		       f0 c3		      beq	Lda3a	;2/3	    *
   1440  0a26		       c6 c4		      dec	ram_C4	;5	    *
   1441  0a28		       a9 00		      lda	#$00	;2	    *
   1442  0a2a		       95 b7		      sta	inv_slot1_lo,x	;4	    *
   1443  0a2c		       c0 05		      cpy	#$05	;2	    *
   1444  0a2e		       90 05		      bcc	Lda37	;2/3	    *
   1445  0a30		       98		      tya		;2	    *
   1446  0a31		       aa		      tax		;2	    *
   1447  0a32		       20 00 00 	      jsr	Ldd1b	;6	    *
   1448  0a35		       8a		      txa		;2	    *
   1449  0a36		       a8		      tay		;2   =  40 *
   1450  0a37				   Lda37
   1451  0a37		       4c 00 00 	      jmp	Ldaf7	;3   =   3 *
   1452  0a3a
   1453  0a3a				   Lda3a
   1454  0a3a		       ca		      dex		;2	    *
   1455  0a3b		       ca		      dex		;2	    *
   1456  0a3c		       10 e0		      bpl	Lda1e	;2/3	    *
   1457  0a3e		       18		      clc		;2	    *
   1458  0a3f		       60		      rts		;6   =  14 *
   1459  0a40
   1460  0a40				   Lda40
   1461  0a40		       a9 00		      lda	#$00	;2	    *
   1462  0a42		       a6 c3		      ldx	cursor_pos	;3	    *
   1463  0a44		       95 b7		      sta	inv_slot1_lo,x	;4	    *
   1464  0a46		       a6 c5		      ldx	current_inv	;3	    *
   1465  0a48		       e0 07		      cpx	#$07	;2	    *
   1466  0a4a		       90 07		      bcc	Lda4f	;2/3	    *
   1467  0a4c		       20 00 00 	      jsr	Ldd1b	;6   =  22 *
   1468  0a4f				   Lda4f
   1469  0a4f		       8a		      txa		;2	    *
   1470  0a50		       a8		      tay		;2	    *
   1471  0a51		       0a		      asl		;2	    *
   1472  0a52		       aa		      tax		;2	    *
   1473  0a53		       bd 00 00 	      lda	Ldc76,x	;4	    *
   1474  0a56		       48		      pha		;3	    *
   1475  0a57		       bd 00 00 	      lda	Ldc75,x	;4	    *
   1476  0a5a		       48		      pha		;3	    *
   1477  0a5b		       a6 81		      ldx	room_num	;3	    *
   1478  0a5d		       60		      rts		;6   =  31 *
   1479  0a5e
   1480  0a5e		       a9 3f 25 b4*	      .byte.b	$a9,$3f,$25,$b4,$85,$b4,$4c,$d8	; $da5e (*)
   1481  0a66		       da 86 8d a9*	      .byte.b	$da,$86,$8d,$a9,$70,$85,$d1,$d0	; $da66 (*)
   1482  0a6e		       f5 a9 42 c5*	      .byte.b	$f5,$a9,$42,$c5,$91,$d0,$11,$a9	; $da6e (*)
   1483  0a76		       03 85 81 20*	      .byte.b	$03,$85,$81,$20,$78,$d8,$a9,$15	; $da76 (*)
   1484  0a7e		       85 c9 a9 1c*	      .byte.b	$85,$c9,$a9,$1c,$85,$cf,$d0,$52	; $da7e (*)
   1485  0a86		       e0 05 d0 4e*	      .byte.b	$e0,$05,$d0,$4e,$a9,$05,$c5,$8b	; $da86 (*)
   1486  0a8e		       d0 48 85 aa*	      .byte.b	$d0,$48,$85,$aa,$a9,$00,$85,$ce	; $da8e (*)
   1487  0a96		       a9 02 05 b4*	      .byte.b	$a9,$02,$05,$b4,$85,$b4,$d0,$3a	; $da96 (*)
   1488  0a9e		       66 b1 18 26*	      .byte.b	$66,$b1,$18,$26,$b1,$e0,$02,$d0	; $da9e (*)
   1489  0aa6		       04 a9 4e 85*	      .byte.b	$04,$a9,$4e,$85,$df,$d0,$2b,$66	; $daa6 (*)
   1490  0aae		       b2 18 26 b2*	      .byte.b	$b2,$18,$26,$b2,$e0,$03,$d0,$08	; $daae (*)
   1491  0ab6		       a9 4f 85 df*	      .byte.b	$a9,$4f,$85,$df,$a9,$4b,$85,$d0	; $dab6 (*)
   1492  0abe		       d0 18 a6 81*	      .byte.b	$d0,$18,$a6,$81,$e0,$03,$d0,$0b	; $dabe (*)
   1493  0ac6		       a5 c9 c9 3c*	      .byte.b	$a5,$c9,$c9,$3c,$b0,$05,$26,$b2	; $dac6 (*)
   1494  0ace		       38 66 b2 a5*	      .byte.b	$38,$66,$b2,$a5,$91,$18,$69,$40	; $dace (*)
   1495  0ad6		       85 91 c6 c4*	      .byte.b	$85,$91,$c6,$c4,$d0,$06,$a9,$00	; $dad6 (*)
   1496  0ade		       85 c5 f0 15*	      .byte.b	$85,$c5,$f0,$15,$a6,$c3,$e8,$e8	; $dade (*)
   1497  0ae6		       e0 0b 90 02*	      .byte.b	$e0,$0b,$90,$02,$a2,$00,$b5,$b7	; $dae6 (*)
   1498  0aee		       f0 f4 86 c3*	      .byte.b	$f0,$f4,$86,$c3,$4a,$4a,$4a,$85	; $daee (*)
   1499  0af6		       c5		      .byte.b	$c5	; $daf6 (*)
   1500  0af7
   1501  0af7				   Ldaf7
   1502  0af7		       a9 0d		      lda	#$0d	;2	    *
   1503  0af9		       85 a2		      sta	ram_A2	;3	    *
   1504  0afb		       38		      sec		;2	    *
   1505  0afc		       60		      rts		;6   =  13 *
   1506  0afd
   1507  0afd		       00 00 00 	      .byte.b	$00,$00,$00	; $dafd (*)
   1508  0b00				   Ldb00
   1509  0b00		       00		      .byte.b	$00	; $db00 (D)
   1510  0b01		       00 35 10 17*	      .byte.b	$00,$35,$10,$17,$30,$00,$00,$00	; $db01 (*)
   1511  0b09		       00 00 00 00	      .byte.b	$00,$00,$00,$00	; $db09 (*)
   1512  0b0d		       05		      .byte.b	$05	; $db0d (D)
   1513  0b0e		       00 00 f0 e0*	      .byte.b	$00,$00,$f0,$e0,$d0,$c0,$b0,$a0	; $db0e (*)
   1514  0b16		       90 71 61 51*	      .byte.b	$90,$71,$61,$51,$41,$31,$21,$11	; $db16 (*)
   1515  0b1e		       01 f1 e1 d1*	      .byte.b	$01,$f1,$e1,$d1,$c1,$b1,$a1,$91	; $db1e (*)
   1516  0b26		       72 62 52 42*	      .byte.b	$72,$62,$52,$42,$32,$22,$12,$02	; $db26 (*)
   1517  0b2e		       f2 e2 d2 c2*	      .byte.b	$f2,$e2,$d2,$c2,$b2,$a2,$92,$73	; $db2e (*)
   1518  0b36		       63 53 43 33*	      .byte.b	$63,$53,$43,$33,$23,$13,$03,$f3	; $db36 (*)
   1519  0b3e		       e3 d3 c3 b3*	      .byte.b	$e3,$d3,$c3,$b3,$a3,$93,$74,$64	; $db3e (*)
   1520  0b46		       54 44		      .byte.b	$54,$44	; $db46 (*)
   1521  0b48		       34		      .byte.b	$34	; $db48 (D)
   1522  0b49		       24 14 04 f4	      .byte.b	$24,$14,$04,$f4	; $db49 (*)
   1523  0b4d		       e4		      .byte.b	$e4	; $db4d (D)
   1524  0b4e		       d4 c4 b4 a4*	      .byte.b	$d4,$c4,$b4,$a4,$94,$75,$65,$55	; $db4e (*)
   1525  0b56		       45 35 25 15*	      .byte.b	$45,$35,$25,$15,$05,$f5,$e5,$d5	; $db56 (*)
   1526  0b5e		       c5 b5 a5 95*	      .byte.b	$c5,$b5,$a5,$95,$76,$66,$56,$46	; $db5e (*)
   1527  0b66		       36 26 16 06*	      .byte.b	$36,$26,$16,$06,$f6,$e6,$d6,$c6	; $db66 (*)
   1528  0b6e		       b6 a6 96 77*	      .byte.b	$b6,$a6,$96,$77,$67,$57,$47,$37	; $db6e (*)
   1529  0b76		       27 17 07 f7*	      .byte.b	$27,$17,$07,$f7,$e7,$d7,$c7,$b7	; $db76 (*)
   1530  0b7e		       a7 97 78 68*	      .byte.b	$a7,$97,$78,$68,$58,$48,$38,$28	; $db7e (*)
   1531  0b86		       18 08 f8 e8*	      .byte.b	$18,$08,$f8,$e8,$d8,$c8,$b8,$a8	; $db86 (*)
   1532  0b8e		       98 79 69 59	      .byte.b	$98,$79,$69,$59	; $db8e (*)
   1533  0b92				   Ldb92
   1534  0b92		       11 11 11 11*	      .byte.b	$11,$11,$11,$11,$31,$11,$25,$05	; $db92 (*)
   1535  0b9a		       05 01 01 05*	      .byte.b	$05,$01,$01,$05,$05	; $db9a (*)
   1536  0b9f		       01		      .byte.b	$01	; $db9f (D)
   1537  0ba0				   Ldba0
   1538  0ba0		       00 24 96 22*	      .byte.b	$00,$24,$96,$22,$72,$fc,$00,$00	; $dba0 (*)
   1539  0ba8		       00 72 12 00*	      .byte.b	$00,$72,$12,$00,$f8	; $dba8 (*)
   1540  0bad
   1541  0bad		       00		      .byte.b	$00|$0	; $dbad (CB)
   1542  0bae
   1543  0bae				   Ldbae
   1544  0bae		       08 22 08 00*	      .byte.b	$08,$22,$08,$00,$1a,$28,$c8,$e8	; $dbae (*)
   1545  0bb6		       8a 1a c6 00*	      .byte.b	$8a,$1a,$c6,$00,$28	; $dbb6 (*)
   1546  0bbb
   1547  0bbb		       78		      .byte.b	$70|$8	; $dbbb (CP)
   1548  0bbc
   1549  0bbc				   Ldbbc
   1550  0bbc		       cc ea 5a 26*	      .byte.b	$cc,$ea,$5a,$26,$9e,$a6,$7c	; $dbbc (*)
   1551  0bc3				   Ldbc3
   1552  0bc3		       88 28 f8 4a*	      .byte.b	$88,$28,$f8,$4a,$26,$a8	; $dbc3 (*)
   1553  0bc9
   1554  0bc9				   Ldbc9
   1555  0bc9		       cc		      .byte.b	$c0|$c	; $dbc9 (C)
   1556  0bca
   1557  0bca		       ce 4a 98 00*	      .byte.b	$ce,$4a,$98,$00,$00,$00	; $dbca (*)
   1558  0bd0
   1559  0bd0		       08		      .byte.b	$00|$8	; $dbd0 (C)
   1560  0bd1
   1561  0bd1		       07 01 10 	      .byte.b	$07,$01,$10	; $dbd1 (*)
   1562  0bd4				   Ldbd4
   1563  0bd4		       78 4c 5d 4c*	      .byte.b	$78,$4c,$5d,$4c,$4f,$4c,$12,$4c	; $dbd4 (*)
   1564  0bdc		       4c 4c 4c 12*	      .byte.b	$4c,$4c,$4c,$12,$12	; $dbdc (*)
   1565  0be1				   Ldbe1
   1566  0be1		       ff ff ff f9*	      .byte.b	$ff,$ff,$ff,$f9,$f9,$f9,$fa,$00	; $dbe1 (*)
   1567  0be9		       fd fb fc fc*	      .byte.b	$fd,$fb,$fc,$fc,$fc	; $dbe9 (*)
   1568  0bee				   Ldbee
   1569  0bee		       00 51 a1 00*	      .byte.b	$00,$51,$a1,$00,$51,$a2,$c1,$e5	; $dbee (*)
   1570  0bf6		       e0 00 00 00*	      .byte.b	$e0,$00,$00,$00,$00	; $dbf6 (*)
   1571  0bfb				   Ldbfb
   1572  0bfb		       72 7a 8a 82	      .byte.b	$72,$7a,$8a,$82	; $dbfb (*)
   1573  0bff				   Ldbff
   1574  0bff		       fe fa 02 06	      .byte.b	$fe,$fa,$02,$06	; $dbff (*)
   1575  0c03				   Ldc03
   1576  0c03		       00 00 18 04*	      .byte.b	$00,$00,$18,$04,$03,$03,$85,$85	; $dc03 (*)
   1577  0c0b		       3b 85 85 	      .byte.b	$3b,$85,$85	; $dc0b (*)
   1578  0c0e				   Ldc0e
   1579  0c0e		       20 78 85 4d*	      .byte.b	$20,$78,$85,$4d,$62,$17,$50,$50	; $dc0e (*)
   1580  0c16		       50 50 50 12*	      .byte.b	$50,$50,$50,$12,$12	; $dc16 (*)
   1581  0c1b				   Ldc1b
   1582  0c1b		       ff ff 14 4b*	      .byte.b	$ff,$ff,$14,$4b,$4a,$44,$ff,$27	; $dc1b (*)
   1583  0c23		       ff ff ff f0*	      .byte.b	$ff,$ff,$ff,$f0,$f0	; $dc23 (*)
   1584  0c28				   Ldc28
   1585  0c28		       06 06 06 06*	      .byte.b	$06,$06,$06,$06,$06,$06,$48,$68	; $dc28 (*)
   1586  0c30		       89 00 00 	      .byte.b	$89,$00,$00	; $dc30 (*)
   1587  0c33				   Ldc33
   1588  0c33		       00 00 00 00*	      .byte.b	$00,$00,$00,$00,$00,$00,$fd,$fd	; $dc33 (*)
   1589  0c3b		       fd fe fe 	      .byte.b	$fd,$fe,$fe	; $dc3b (*)
   1590  0c3e				   Ldc3e
   1591  0c3e		       20 20 20 20*	      .byte.b	$20,$20,$20,$20,$20,$20,$20,$b7	; $dc3e (*)
   1592  0c46		       9b 78 78 	      .byte.b	$9b,$78,$78	; $dc46 (*)
   1593  0c49				   Ldc49
   1594  0c49		       00 00 00 00*	      .byte.b	$00,$00,$00,$00,$00,$00,$fd,$fd	; $dc49 (*)
   1595  0c51		       fd fe fe 	      .byte.b	$fd,$fe,$fe	; $dc51 (*)
   1596  0c54				   Ldc54
   1597  0c54		       01 02 04 08*	      .byte.b	$01,$02,$04,$08,$10,$20,$40,$80	; $dc54 (*)
   1598  0c5c				   Ldc5c
   1599  0c5c		       fe fd fb f7*	      .byte.b	$fe,$fd,$fb,$f7,$ef,$df,$bf,$7f	; $dc5c (*)
   1600  0c64				   Ldc64
   1601  0c64		       00 00 00 00*	      .byte.b	$00,$00,$00,$00,$08,$00,$02,$0a	; $dc64 (*)
   1602  0c6c		       0c 0e 01 03*	      .byte.b	$0c,$0e,$01,$03,$04,$06,$05,$07	; $dc6c (*)
   1603  0c74		       0d		      .byte.b	$0d	; $dc74 (*)
   1604  0c75				   Ldc75
   1605  0c75		       0f		      .byte.b	$0f	; $dc75 (*)
   1606  0c76				   Ldc76
   1607  0c76		       0b d7 da d7*	      .byte.b	$0b,$d7,$da,$d7,$da,$5d,$da,$bf	; $dc76 (*)
   1608  0c7e		       da d7 da d7*	      .byte.b	$da,$d7,$da,$d7,$da,$d7,$da,$d7	; $dc7e (*)
   1609  0c86		       da d7 da 9d*	      .byte.b	$da,$d7,$da,$9d,$da,$ac,$da,$d7	; $dc86 (*)
   1610  0c8e		       da d7 da d7*	      .byte.b	$da,$d7,$da,$d7,$da,$d7,$da,$66	; $dc8e (*)
   1611  0c96		       da 6e da 66*	      .byte.b	$da,$6e,$da,$66,$da,$b3,$d2,$ea	; $dc96 (*)
   1612  0c9e		       d1 91 d2 49*	      .byte.b	$d1,$91,$d2,$49,$d2,$b3,$d2,$c3	; $dc9e (*)
   1613  0ca6		       d1 8d d2 b8*	      .byte.b	$d1,$8d,$d2,$b8,$d1,$34,$d3,$b3	; $dca6 (*)
   1614  0cae		       d2 91 d1 8d*	      .byte.b	$d2,$91,$d1,$8d,$d1,$61,$d1,$73	; $dcae (*)
   1615  0cb6		       d3 73 d3 20*	      .byte.b	$d3,$73,$d3,$20,$d3,$73,$d3,$73	; $dcb6 (*)
   1616  0cbe		       d3 56 d3 01*	      .byte.b	$d3,$56,$d3,$01,$d3,$56,$d3,$34	; $dcbe (*)
   1617  0cc6		       d3 73 d3 69*	      .byte.b	$d3,$73,$d3,$69,$d3,$73,$d3,$73	; $dcc6 (*)
   1618  0cce		       d3 73 d3 73*	      .byte.b	$d3,$73,$d3,$73,$d3,$6e,$d3,$73	; $dcce (*)
   1619  0cd6		       d3 f1 d2 73*	      .byte.b	$d3,$f1,$d2,$73,$d3,$73,$d3,$73	; $dcd6 (*)
   1620  0cde		       d3 73 d3 cd*	      .byte.b	$d3,$73,$d3,$cd,$d2,$6e,$d3,$73	; $dcde (*)
   1621  0ce6		       d3 73 d3 	      .byte.b	$d3,$73,$d3	; $dce6 (*)
   1622  0ce9
   1623  0ce9				   Ldce9
   1624  0ce9		       a6 c4		      ldx	ram_C4	;3	    *
   1625  0ceb		       e0 06		      cpx	#$06	;2	    *
   1626  0ced		       90 06		      bcc	Ldcf1	;2/3	    *
   1627  0cef		       18		      clc		;2	    *
   1628  0cf0		       60		      rts		;6   =  15 *
   1629  0cf1
   1630  0cf1				   Ldcf1
   1631  0cf1		       a2 0a		      ldx	#$0a	;2   =   2 *
   1632  0cf3				   Ldcf3
   1633  0cf3		       b4 b7		      ldy	inv_slot1_lo,x	;4	    *
   1634  0cf5		       f0 b7		      beq	Ldcfc	;2/3	    *
   1635  0cf7		       ca		      dex		;2	    *
   1636  0cf8		       ca		      dex		;2	    *
   1637  0cf9		       10 f8		      bpl	Ldcf3	;2/3	    *
   1638  0cfb		       00		      brk		;7   =  19 *
   1639  0cfc
   1640  0cfc				   Ldcfc
   1641  0cfc		       a8		      tay		;2	    *
   1642  0cfd		       0a		      asl		;2	    *
   1643  0cfe		       0a		      asl		;2	    *
   1644  0cff		       0a		      asl		;2	    *
   1645  0d00		       95 b7		      sta	inv_slot1_lo,x	;4	    *
   1646  0d02		       a5 c4		      lda	ram_C4	;3	    *
   1647  0d04		       d0 c4		      bne	Ldd0a	;2/3	    *
   1648  0d06		       86 c3		      stx	cursor_pos	;3	    *
   1649  0d08		       84 c5		      sty	current_inv	;3   =  23 *
   1650  0d0a				   Ldd0a
   1651  0d0a		       e6 c4		      inc	ram_C4	;5	    *
   1652  0d0c		       c0 04		      cpy	#$04	;2	    *
   1653  0d0e		       90 04		      bcc	Ldd15	;2/3	    *
   1654  0d10		       98		      tya		;2	    *
   1655  0d11		       aa		      tax		;2	    *
   1656  0d12		       20 00 00 	      jsr	Ldd2f	;6   =  19 *
   1657  0d15				   Ldd15
   1658  0d15		       a9 0c		      lda	#$0c	;2	    *
   1659  0d17		       85 a2		      sta	ram_A2	;3	    *
   1660  0d19		       38		      sec		;2	    *
   1661  0d1a		       60		      rts		;6   =  13 *
   1662  0d1b
   1663  0d1b				   Ldd1b
   1664  0d1b		       bd 64 dc 	      lda	Ldc64,x	;4	    *
   1665  0d1e		       4a		      lsr		;2	    *
   1666  0d1f		       a8		      tay		;2	    *
   1667  0d20		       b9 5c dc 	      lda	Ldc5c,y	;4	    *
   1668  0d23		       b0 5c		      bcs	Ldd2a	;2/3	    *
   1669  0d25		       25 c6		      and	ram_C6	;3	    *
   1670  0d27		       85 c6		      sta	ram_C6	;3	    *
   1671  0d29		       60		      rts		;6   =  26 *
   1672  0d2a
   1673  0d2a				   Ldd2a
   1674  0d2a		       25 c7		      and	ram_C7	;3	    *
   1675  0d2c		       85 c7		      sta	ram_C7	;3	    *
   1676  0d2e		       60		      rts		;6   =  12 *
   1677  0d2f
   1678  0d2f				   Ldd2f
   1679  0d2f		       bd 64 dc 	      lda	Ldc64,x	;4	    *
   1680  0d32		       4a		      lsr		;2	    *
   1681  0d33		       aa		      tax		;2	    *
   1682  0d34		       bd 54 dc 	      lda	Ldc54,x	;4	    *
   1683  0d37		       b0 54		      bcs	Ldd3e	;2/3	    *
   1684  0d39		       05 c6		      ora	ram_C6	;3	    *
   1685  0d3b		       85 c6		      sta	ram_C6	;3	    *
   1686  0d3d		       60		      rts		;6   =  26 *
   1687  0d3e
   1688  0d3e				   Ldd3e
   1689  0d3e		       05 c7		      ora	ram_C7	;3	    *
   1690  0d40		       85 c7		      sta	ram_C7	;3	    *
   1691  0d42		       60		      rts		;6   =  12 *
   1692  0d43
   1693  0d43		       bd 64 dc 4a*	      .byte.b	$bd,$64,$dc,$4a,$a8,$b9,$54,$dc	; $dd43 (*)
   1694  0d4b		       b0 06 25 c6*	      .byte.b	$b0,$06,$25,$c6,$f0,$01,$38,$60	; $dd4b (*)
   1695  0d53		       25 c7 d0 fb*	      .byte.b	$25,$c7,$d0,$fb,$18,$60	; $dd53 (*)
   1696  0d59
   1697  0d59				   Ldd59
   1698  0d59		       29 1f		      and	#$1f	;2	   
   1699  0d5b		       aa		      tax		;2	   
   1700  0d5c		       a5 98		      lda	ram_98	;3	   
   1701  0d5e		       e0 0c		      cpx	#$0c	;2	   
   1702  0d60		       b0 0c		      bcs	Ldd67	;2/3	   
   1703  0d62		       7d 00 00 	      adc	Ldfe5,x	;4	   
   1704  0d65		       85 98		      sta	ram_98	;3   =  18
   1705  0d67				   Ldd67
   1706  0d67		       60		      rts		;6   =   6
   1707  0d68
   1708  0d68				   game_start
   1709  0d68		       78		      sei		;Turn off interrupts	     
   1710  0d69		       d8		      cld		;Clear Decimal flag (No BCD)	     
   1711  0d6a		       a2 ff		      ldx	#$ff	;	  
   1712  0d6c		       9a		      txs		;Reset the stack pointer	 
   1713  0d6d		       e8		      inx		;Clear X	 
   1714  0d6e		       8a		      txa		;Clear A 
   1715  0d6f				   clear_zp
   1716  0d6f		       95 00		      sta	zero_page,x
   1717  0d71		       ca		      dex
   1718  0d72		       d0 fb		      bne	clear_zp
   1719  0d74
   1720  0d74		       ca		      dex		;x = $FF	 
   1721  0d75		       86 9e		      stx	ram_9E	;3	   
   1722  0d77		       a9 fb		      lda	#$fb	;2	   
   1723  0d79		       85 b8		      sta	inv_slot1_hi	;3	   
   1724  0d7b		       85 ba		      sta	inv_slot2_hi	;3	   
   1725  0d7d		       85 bc		      sta	inv_slot3_hi	;3	   
   1726  0d7f		       85 be		      sta	inv_slot4_hi	;3	   
   1727  0d81		       85 c0		      sta	pwatch_Addr	;3	   
   1728  0d83		       85 c2		      sta	inv_slot6_hi	;3	   
   1729  0d85		       a9 60		      lda	#$60	;2	   
   1730  0d87		       85 b7		      sta	inv_slot1_lo	;3	   
   1731  0d89		       a9 48		      lda	#$48	;2	   
   1732  0d8b		       85 b9		      sta	inv_slot2_lo	;3	   
   1733  0d8d		       a9 d8		      lda	#$d8	;2	   
   1734  0d8f		       85 bd		      sta	inv_slot4_lo	;3	   
   1735  0d91		       a9 08		      lda	#$08	;2	   
   1736  0d93		       85 bb		      sta	inv_slot3_lo	;3	   
   1737  0d95		       a9 e0		      lda	#$e0	;2	   
   1738  0d97		       85 bf		      sta	pwatch_state	;3	   
   1739  0d99		       a9 0d		      lda	#$0d	;2	   
   1740  0d9b		       85 81		      sta	room_num	;3	   
   1741  0d9d		       4a		      lsr		;2	   
   1742  0d9e		       85 a0		      sta	num_bullets	; Load 6 bullets	  
   1743  0da0		       20 78 d8 	      jsr	Ld878	;6	   
   1744  0da3		       4c dd d3 	      jmp	Ld3dd	;3   =  77
   1745  0da6
   1746  0da6				   reset_vars
   1747  0da6		       a9 20		      lda	#$20	;2	    *
   1748  0da8		       85 b7		      sta	inv_slot1_lo	;3	    *
   1749  0daa		       4a		      lsr		;2	    *
   1750  0dab		       4a		      lsr		;2	    *
   1751  0dac		       4a		      lsr		;2	    *
   1752  0dad		       85 c5		      sta	current_inv	;3	    *
   1753  0daf		       e6 c4		      inc	ram_C4	;5	    *
   1754  0db1		       a9 00		      lda	#$00	;2	    *
   1755  0db3		       85 b9		      sta	inv_slot2_lo	;3	    *
   1756  0db5		       85 bb		      sta	inv_slot3_lo	;3	    *
   1757  0db7		       85 bd		      sta	inv_slot4_lo	;3	    *
   1758  0db9		       85 bf		      sta	pwatch_state	;3	    *
   1759  0dbb		       a9 64		      lda	#$64	;2	    *
   1760  0dbd		       85 9e		      sta	ram_9E	;3	    *
   1761  0dbf		       a9 58		      lda	#$58	;2	    *
   1762  0dc1		       85 d9		      sta	indy_anim	;3	    *
   1763  0dc3		       a9 fa		      lda	#$fa	;2	    *
   1764  0dc5		       85 da		      sta	ram_DA	;3	    *
   1765  0dc7		       a9 4c		      lda	#$4c	;2	    *
   1766  0dc9		       85 c9		      sta	indy_x	;3	    *
   1767  0dcb		       a9 0f		      lda	#$0f	;2	    *
   1768  0dcd		       85 cf		      sta	indy_y	;3	    *
   1769  0dcf		       a9 02		      lda	#$02	;2	    *
   1770  0dd1		       85 81		      sta	room_num	;3	    *
   1771  0dd3		       85 9f		      sta	lives_left	;3	    *
   1772  0dd5		       20 78 d8 	      jsr	Ld878	;6	    *
   1773  0dd8		       4c 0d d8 	      jmp	Ld80d	;3   =  75 *
   1774  0ddb
   1775  0ddb				   Ldddb
   1776  0ddb		       a5 9e		      lda	ram_9E	;3	    *
   1777  0ddd		       38		      sec		;2	    *
   1778  0dde		       e5 a7		      sbc	shovel_used	;3	    *
   1779  0de0		       e5 a8		      sbc	parachute_used	;3	    *
   1780  0de2		       e5 a9		      sbc	ankh_used	;3	    *
   1781  0de4		       e5 aa		      sbc	yar_found	;3	    *
   1782  0de6		       e5 9f		      sbc	lives_left	;3	    *
   1783  0de8		       e5 ab		      sbc	ark_found	;3	    *
   1784  0dea		       e5 ad		      sbc	mesa_entered	;3	    *
   1785  0dec		       e5 ae		      sbc	unknown_action	;3	    *
   1786  0dee		       18		      clc		;2	    *
   1787  0def		       65 a5		      adc	grenade_used	;3	    *
   1788  0df1		       65 a6		      adc	escape_hatch_used	;3	    *
   1789  0df3		       65 ac		      adc	thief_shot	;3	    *
   1790  0df5		       85 9e		      sta	ram_9E	;3	    *
   1791  0df7		       60		      rts		;6   =  49 *
   1792  0df8
   1793  0df8		       00 00 00 00*	      .byte.b	$00,$00,$00,$00,$00,$00,$00,$00	; $ddf8 (*)
   1794  0e00				   Lde00
   1795  0e00		       ff ff ff ff*	      .byte.b	$ff,$ff,$ff,$ff,$ff,$ff,$ff,$f8	; $de00 (*)
   1796  0e08		       ff ff ff ff*	      .byte.b	$ff,$ff,$ff,$ff,$ff,$4f,$4f,$4f	; $de08 (*)
   1797  0e10		       4f 4f 4f 4f*	      .byte.b	$4f,$4f,$4f,$4f,$4f,$4f,$4f,$4f	; $de10 (*)
   1798  0e18		       44 44 0f 0f*	      .byte.b	$44,$44,$0f,$0f,$1c,$0f,$0f,$18	; $de18 (*)
   1799  0e20		       0f 0f 0f 0f*	      .byte.b	$0f,$0f,$0f,$0f,$0f,$12,$12,$89	; $de20 (*)
   1800  0e28		       89 8c 89 89*	      .byte.b	$89,$8c,$89,$89,$86,$89,$89,$89	; $de28 (*)
   1801  0e30		       89 89 86 86	      .byte.b	$89,$89,$86,$86	; $de30 (*)
   1802  0e34				   Lde34
   1803  0e34		       ff fd ff ff*	      .byte.b	$ff,$fd,$ff,$ff,$fd,$ff,$ff,$ff	; $de34 (*)
   1804  0e3c		       fd 01 fd 04*	      .byte.b	$fd,$01,$fd,$04,$fd,$ff,$fd,$01	; $de3c (*)
   1805  0e44		       ff 0b 0a ff*	      .byte.b	$ff,$0b,$0a,$ff,$ff,$ff,$04,$ff	; $de44 (*)
   1806  0e4c		       fd ff fd ff*	      .byte.b	$fd,$ff,$fd,$ff,$ff,$ff,$ff,$ff	; $de4c (*)
   1807  0e54		       fe fd fd ff*	      .byte.b	$fe,$fd,$fd,$ff,$ff,$ff,$ff,$ff	; $de54 (*)
   1808  0e5c		       fd fd fe ff*	      .byte.b	$fd,$fd,$fe,$ff,$ff,$fe,$fd,$fd	; $de5c (*)
   1809  0e64		       ff ff ff ff	      .byte.b	$ff,$ff,$ff,$ff	; $de64 (*)
   1810  0e68				   Lde68
   1811  0e68		       00 1e 00 00*	      .byte.b	$00,$1e,$00,$00,$11,$00,$00,$00	; $de68 (*)
   1812  0e70		       11 00 10 00*	      .byte.b	$11,$00,$10,$00,$60,$00,$11,$00	; $de70 (*)
   1813  0e78		       00 00 00 00*	      .byte.b	$00,$00,$00,$00,$00,$00,$00,$00	; $de78 (*)
   1814  0e80		       70 00 12 00*	      .byte.b	$70,$00,$12,$00,$00,$00,$00,$00	; $de80 (*)
   1815  0e88		       30 15 24 00*	      .byte.b	$30,$15,$24,$00,$00,$00,$00,$00	; $de88 (*)
   1816  0e90		       18 03 27 00*	      .byte.b	$18,$03,$27,$00,$00,$30,$20,$12	; $de90 (*)
   1817  0e98		       00 00 00 00	      .byte.b	$00,$00,$00,$00	; $de98 (*)
   1818  0e9c				   Lde9c
   1819  0e9c		       00 7a 00 00*	      .byte.b	$00,$7a,$00,$00,$88,$00,$00,$00	; $de9c (*)
   1820  0ea4		       88 00 80 00*	      .byte.b	$88,$00,$80,$00,$65,$00,$88,$00	; $dea4 (*)
   1821  0eac		       00 00 00 00*	      .byte.b	$00,$00,$00,$00,$00,$00,$00,$00	; $deac (*)
   1822  0eb4		       72 00 16 00*	      .byte.b	$72,$00,$16,$00,$00,$00,$00,$00	; $deb4 (*)
   1823  0ebc		       02 1f 2f 00*	      .byte.b	$02,$1f,$2f,$00,$00,$00,$00,$00	; $debc (*)
   1824  0ec4		       1c 40 01 00*	      .byte.b	$1c,$40,$01,$00,$00,$07,$27,$16	; $dec4 (*)
   1825  0ecc		       00 00 00 00	      .byte.b	$00,$00,$00,$00	; $decc (*)
   1826  0ed0				   Lded0
   1827  0ed0		       00 02 00 00*	      .byte.b	$00,$02,$00,$00,$09,$00,$00,$00	; $ded0 (*)
   1828  0ed8		       07 00 fc 00*	      .byte.b	$07,$00,$fc,$00,$05,$00,$09,$00	; $ded8 (*)
   1829  0ee0		       00 00 00 00*	      .byte.b	$00,$00,$00,$00,$00,$00,$00,$00	; $dee0 (*)
   1830  0ee8		       03 00 ff 00*	      .byte.b	$03,$00,$ff,$00,$00,$00,$00,$00	; $dee8 (*)
   1831  0ef0		       01 06 fe 00*	      .byte.b	$01,$06,$fe,$00,$00,$00,$00,$00	; $def0 (*)
   1832  0ef8		       fb fd 0b 00*	      .byte.b	$fb,$fd,$0b,$00,$00,$08,$08,$00	; $def8 (*)
   1833  0f00		       00 00 00 00	      .byte.b	$00,$00,$00,$00	; $df00 (*)
   1834  0f04				   Ldf04
   1835  0f04		       00 4e 00 00*	      .byte.b	$00,$4e,$00,$00,$4e,$00,$00,$00	; $df04 (*)
   1836  0f0c		       4d 4e 4e 4e*	      .byte.b	$4d,$4e,$4e,$4e,$04,$01,$03,$01	; $df0c (*)
   1837  0f14		       01 01 01 01*	      .byte.b	$01,$01,$01,$01,$01,$01,$01,$01	; $df14 (*)
   1838  0f1c		       40 00 23 00*	      .byte.b	$40,$00,$23,$00,$00,$00,$00,$00	; $df1c (*)
   1839  0f24		       00 00 41 00*	      .byte.b	$00,$00,$41,$00,$00,$00,$00,$00	; $df24 (*)
   1840  0f2c		       45 00 42 00*	      .byte.b	$45,$00,$42,$00,$00,$00,$42,$23	; $df2c (*)
   1841  0f34		       28 00 00 00	      .byte.b	$28,$00,$00,$00	; $df34 (*)
   1842  0f38				   Ldf38
   1843  0f38		       00 00 00 00*	      .byte.b	$00,$00,$00,$00,$00,$00,$00,$00	; $df38 (*)
   1844  0f40		       00 00 00 00*	      .byte.b	$00,$00,$00,$00,$4c,$00,$00,$00	; $df40 (*)
   1845  0f48		       00 00 00 00*	      .byte.b	$00,$00,$00,$00,$00,$00,$00,$00	; $df48 (*)
   1846  0f50		       80 00 86 00*	      .byte.b	$80,$00,$86,$00,$00,$00,$00,$00	; $df50 (*)
   1847  0f58		       80 86 80 00*	      .byte.b	$80,$86,$80,$00,$00,$00,$00,$00	; $df58 (*)
   1848  0f60		       12 12 4c 00*	      .byte.b	$12,$12,$4c,$00,$00,$16,$80,$12	; $df60 (*)
   1849  0f68		       50 00 00 00	      .byte.b	$50,$00,$00,$00	; $df68 (*)
   1850  0f6c				   Ldf6c
   1851  0f6c		       01 ff 01 ff	      .byte.b	$01,$ff,$01,$ff	; $df6c (*)
   1852  0f70				   Ldf70
   1853  0f70		       35 09		      .byte.b	$35,$09	; $df70 (*)
   1854  0f72				   Ldf72
   1855  0f72		       00 00 42 45*	      .byte.b	$00,$00,$42,$45,$0c,$20,$04,$11	; $df72 (*)
   1856  0f7a		       10 12		      .byte.b	$10,$12	; $df7a (*)
   1857  0f7c				   Ldf7c
   1858  0f7c		       07 03 05 06*	      .byte.b	$07,$03,$05,$06,$09,$0b,$0e,$00	; $df7c (*)
   1859  0f84		       01 03 05 00*	      .byte.b	$01,$03,$05,$00,$09,$0c,$0e,$00	; $df84 (*)
   1860  0f8c		       01 04 05 00*	      .byte.b	$01,$04,$05,$00,$0a,$0c,$0f,$00	; $df8c (*)
   1861  0f94		       02 04 05 08*	      .byte.b	$02,$04,$05,$08,$0a,$0d,$0f,$00	; $df94 (*)
   1862  0f9c
   1863  0f9c				   Ldf9c
   1864  0f9c		       ad 84 02 	      lda	INTIM	;4	   
   1865  0f9f		       d0 fb		      bne	Ldf9c	;2/3	   
   1866  0fa1		       85 02		      sta	WSYNC	;3   =   9
   1867  0fa3							;---------------------------------------
   1868  0fa3		       85 02		      sta	WSYNC	;3   =   3
   1869  0fa5							;---------------------------------------
   1870  0fa5		       a9 44		      lda	#$44	;2	   
   1871  0fa7		       85 88		      sta	ram_88	;3	   
   1872  0fa9		       a9 f8		      lda	#$f8	;2	   
   1873  0fab		       85 89		      sta	ram_89	;3   =  10
   1874  0fad				   Ldfad
   1875  0fad		       a9 ad		      lda	#$ad	;2	   
   1876  0faf		       85 84		      sta	ram_84	;3	   
   1877  0fb1		       a9 f9		      lda	#$f9	;2	   
   1878  0fb3		       85 85		      sta	ram_85	;3	   
   1879  0fb5		       a9 ff		      lda	#$ff	;2	   
   1880  0fb7		       85 86		      sta	ram_86	;3	   
   1881  0fb9		       a9 4c		      lda	#$4c	;2	   
   1882  0fbb		       85 87		      sta	ram_87	;3	   
   1883  0fbd		       4c 84 00 	      jmp.w	ram_84	;3   =  23
   1884  0fc0
   1885  0fc0				   move_enemy
   1886  0fc0		       6a		      ror		;Move first bit into carry
   1887  0fc1		       b0 84		      bcs	mov_emy_right	;If 1 check if enemy shoulld go right
   1888  0fc3		       d6 ce		      dec	enemy_y,x	;Move enemy left 1 unit
   1889  0fc5				   mov_emy_right
   1890  0fc5		       6a		      ror		;Rotate next bit into carry
   1891  0fc6		       b0 ce		      bcs	mov_emy_down	;if 1 check if enemy should go up
   1892  0fc8		       f6 ce		      inc	enemy_y,x	;Move enemy right 1 unit
   1893  0fca				   mov_emy_down
   1894  0fca		       6a		      ror		;Rotate next bit into carry
   1895  0fcb		       b0 ce		      bcs	mov_emy_up	;if 1 check if enemy should go up
   1896  0fcd		       d6 c8		      dec	enemy_x,x	;Move enemy down 1 unit
   1897  0fcf				   mov_emy_up
   1898  0fcf		       6a		      ror		;Rotate next bit into carry
   1899  0fd0		       b0 c8		      bcs	mov_eny_finish	;if 1, moves are finished
   1900  0fd2		       f6 c8		      inc	enemy_x,x	;Move enemy up 1 unit
   1901  0fd4				   mov_eny_finish
   1902  0fd4		       60		      rts		;return
   1903  0fd5
   1904  0fd5		       00 00 00 00*	      .byte.b	$00,$00,$00,$00,$00,$0a,$09,$0b	; $dfd5 (*)
   1905  0fdd		       00 06 05 07*	      .byte.b	$00,$06,$05,$07,$00,$0e,$0d,$0f	; $dfdd (*)
   1906  0fe5				   Ldfe5
   1907  0fe5		       00		      .byte.b	$00	; $dfe5 (D)
   1908  0fe6		       06 03 03 03*	      .byte.b	$06,$03,$03,$03,$00,$00,$06,$00	; $dfe6 (*)
   1909  0fee		       00 00 06 00*	      .byte.b	$00,$00,$06,$00,$00,$00,$00,$00	; $dfee (*)
   1910  0ff6		       00 00 00 	      .byte.b	$00,$00,$00	; $dff6 (*)
   1911  0ff9		       00		      .byte.b	$00	; $dff9 (D)
   1912  0ffa		       68 dd 68 dd	      .byte.b	$68,$dd,$68,$dd	; $dffa (*)
   1913  0ffe		       68		      .byte.b	$68	; $dffe (D)
   1914  0fff		       dd		      .byte.b	$dd	; $dfff (*)
   1915  1000
   1916  1000
   1917  1000							;***********************************************************
   1918  1000							;	Bank 1 / 0..1
   1919  1000							;***********************************************************
   1920  1000
   1921  1000					      SEG	CODE
   1922  1000					      ORG	$1000
   1923  1000					      RORG	$f000
   1924  1000
   1925  1000		       ad 00 00 	      lda	Lfff8	;4   =   4
   1926  1003				   Lf003
   1927  1003		       c5 e0		      cmp	ram_E0	;3	    *
   1928  1005		       b0 e0		      bcs	Lf01a	;2/3	    *
   1929  1007		       4a		      lsr		;2	    *
   1930  1008		       18		      clc		;2	    *
   1931  1009		       65 df		      adc	ram_DF	;3	    *
   1932  100b		       a8		      tay		;2	    *
   1933  100c		       85 02		      sta	WSYNC	;3   =  17 *
   1934  100e							;---------------------------------------
   1935  100e		       85 2a		      sta	HMOVE	;3	    *
   1936  1010		       b1 e1		      lda	(PF1_data),y	;5	    *
   1937  1012		       85 0e		      sta	PF1	;3	    *
   1938  1014		       b1 e3		      lda	(PF2_data),y	;5	    *
   1939  1016		       85 0f		      sta	PF2	;3	    *
   1940  1018		       90 0f		      bcc	Lf033	;2/3 =  21 *
   1941  101a				   Lf01a
   1942  101a		       e5 d4		      sbc	ram_D4	;3	    *
   1943  101c		       4a		      lsr		;2	    *
   1944  101d		       4a		      lsr		;2	    *
   1945  101e		       85 02		      sta	WSYNC	;3   =  10 *
   1946  1020							;---------------------------------------
   1947  1020		       85 2a		      sta	HMOVE	;3	    *
   1948  1022		       aa		      tax		;2	    *
   1949  1023		       e4 d5		      cpx	ram_D5	;3	    *
   1950  1025		       90 d5		      bcc	Lf02d	;2/3	    *
   1951  1027		       a6 d8		      ldx	ram_D8	;3	    *
   1952  1029		       a9 00		      lda	#$00	;2	    *
   1953  102b		       f0 00		      beq	Lf031	;2/3 =  17 *
   1954  102d				   Lf02d
   1955  102d		       b5 e5		      lda	ram_E5,x	;4	    *
   1956  102f		       a6 d8		      ldx	ram_D8	;3   =   7 *
   1957  1031				   Lf031
   1958  1031		       95 0e		      sta	PF1,x	;4   =   4 *
   1959  1033				   Lf033
   1960  1033		       a2 1e		      ldx	#$1e	;2	    *
   1961  1035		       9a		      txs		;2	    *
   1962  1036		       a5 80		      lda	scan_line	;3	    *
   1963  1038		       38		      sec		;2	    *
   1964  1039		       e5 cf		      sbc	indy_y	;3	    *
   1965  103b		       c5 db		      cmp	indy_h	;3	    *
   1966  103d		       b0 db		      bcs	Lf079	;2/3	    *
   1967  103f		       a8		      tay		;2	    *
   1968  1040		       b1 d9		      lda	(indy_anim),y	;5	    *
   1969  1042		       aa		      tax		;2   =  26 *
   1970  1043				   Lf043
   1971  1043		       a5 80		      lda	scan_line	;3	    *
   1972  1045		       38		      sec		;2	    *
   1973  1046		       e5 ce		      sbc	enemy_y	;3	    *
   1974  1048		       c5 dc		      cmp	snake_y	;3	    *
   1975  104a		       b0 dc		      bcs	Lf07d	;2/3	    *
   1976  104c		       a8		      tay		;2	    *
   1977  104d		       b1 dd		      lda	(emy_anim),y	;5	    *
   1978  104f		       a8		      tay		;2   =  22 *
   1979  1050				   Lf050
   1980  1050		       a5 80		      lda	scan_line	;3	    *
   1981  1052		       85 02		      sta	WSYNC	;3   =   6 *
   1982  1054							;---------------------------------------
   1983  1054		       85 2a		      sta	HMOVE	;3	    *
   1984  1056		       c5 d1		      cmp	ram_D1	;3	    *
   1985  1058		       08		      php		;3	    *
   1986  1059		       c5 d0		      cmp	ram_D0	;3	    *
   1987  105b		       08		      php		;3	    *
   1988  105c		       86 1c		      stx	GRP1	;3	    *
   1989  105e		       84 1b		      sty	GRP0	;3	    *
   1990  1060		       38		      sec		;2	    *
   1991  1061		       e5 d2		      sbc	ram_D2	;3	    *
   1992  1063		       c9 08		      cmp	#$08	;2	    *
   1993  1065		       b0 08		      bcs	Lf06e	;2/3	    *
   1994  1067		       a8		      tay		;2	    *
   1995  1068		       b1 d6		      lda	(ram_D6),y	;5	    *
   1996  106a		       85 1f		      sta	ENABL	;3	    *
   1997  106c		       85 24		      sta	HMBL	;3   =  43 *
   1998  106e				   Lf06e
   1999  106e		       e6 80		      inc	scan_line	;5	    *
   2000  1070		       a5 80		      lda	scan_line	;3	    *
   2001  1072		       c9 50		      cmp	#$50	;2	    *
   2002  1074		       90 8d		      bcc	Lf003	;2/3	    *
   2003  1076		       4c 00 00 	      jmp	Lf1ea	;3   =  15 *
   2004  1079
   2005  1079				   Lf079
   2006  1079		       a2 00		      ldx	#$00	;2	    *
   2007  107b		       f0 c6		      beq	Lf043	;2/3 =   4 *
   2008  107d				   Lf07d
   2009  107d		       a0 00		      ldy	#$00	;2	    *
   2010  107f		       f0 cf		      beq	Lf050	;2/3 =   4 *
   2011  1081				   Lf081
   2012  1081		       e0 4f		      cpx	#$4f	;2	    *
   2013  1083		       90 4f		      bcc	Lf088	;2/3	    *
   2014  1085		       4c 00 00 	      jmp	Lf1ea	;3   =   7 *
   2015  1088
   2016  1088				   Lf088
   2017  1088		       a9 00		      lda	#$00	;2	    *
   2018  108a		       f0 00		      beq	Lf0a4	;2/3 =   4 *
   2019  108c				   Lf08c
   2020  108c		       b1 dd		      lda	(emy_anim),y	;5	    *
   2021  108e		       30 dd		      bmi	Lf09c	;2/3	    *
   2022  1090		       c4 df		      cpy	ram_DF	;3	    *
   2023  1092		       b0 ed		      bcs	Lf081	;2/3	    *
   2024  1094		       c4 ce		      cpy	enemy_y	;3	    *
   2025  1096		       90 f0		      bcc	Lf088	;2/3	    *
   2026  1098		       85 1b		      sta	GRP0	;3	    *
   2027  109a		       b0 1b		      bcs	Lf0a4	;2/3 =  22 *
   2028  109c				   Lf09c
   2029  109c		       0a		      asl		;2	    *
   2030  109d		       a8		      tay		;2	    *
   2031  109e		       29 02		      and	#$02	;2	    *
   2032  10a0		       aa		      tax		;2	    *
   2033  10a1		       98		      tya		;2	    *
   2034  10a2		       81 e1		      sta	(PF1_data,x)	;6   =  16 *
   2035  10a4				   Lf0a4
   2036  10a4		       e6 80		      inc	scan_line	;5	    *
   2037  10a6		       a6 80		      ldx	scan_line	;3	    *
   2038  10a8		       a9 02		      lda	#$02	;2	    *
   2039  10aa		       e4 d0		      cpx	ram_D0	;3	    *
   2040  10ac		       90 d0		      bcc	Lf0b2	;2/3	    *
   2041  10ae		       e4 e0		      cpx	ram_E0	;3	    *
   2042  10b0		       90 e0		      bcc	Lf0b3	;2/3 =  20 *
   2043  10b2				   Lf0b2
   2044  10b2		       6a		      ror		;2   =   2 *
   2045  10b3				   Lf0b3
   2046  10b3		       85 1d		      sta	ENAM0	;3	    *
   2047  10b5		       85 02		      sta	WSYNC	;3   =   6 *
   2048  10b7							;---------------------------------------
   2049  10b7		       85 2a		      sta	HMOVE	;3	    *
   2050  10b9		       8a		      txa		;2	    *
   2051  10ba		       38		      sec		;2	    *
   2052  10bb		       e5 d5		      sbc	ram_D5	;3	    *
   2053  10bd		       c9 10		      cmp	#$10	;2	    *
   2054  10bf		       b0 10		      bcs	Lf0ff	;2/3	    *
   2055  10c1		       a8		      tay		;2	    *
   2056  10c2		       c9 08		      cmp	#$08	;2	    *
   2057  10c4		       90 08		      bcc	Lf0fb	;2/3	    *
   2058  10c6		       a5 d8		      lda	ram_D8	;3	    *
   2059  10c8		       85 d6		      sta	ram_D6	;3   =  26 *
   2060  10ca				   Lf0ca
   2061  10ca		       b1 d6		      lda	(ram_D6),y	;5	    *
   2062  10cc		       85 24		      sta	HMBL	;3   =   8 *
   2063  10ce				   Lf0ce
   2064  10ce		       a0 00		      ldy	#$00	;2	    *
   2065  10d0		       8a		      txa		;2	    *
   2066  10d1		       c5 d1		      cmp	ram_D1	;3	    *
   2067  10d3		       d0 d1		      bne	Lf0d6	;2/3	    *
   2068  10d5		       88		      dey		;2   =  11 *
   2069  10d6				   Lf0d6
   2070  10d6		       84 1e		      sty	ENAM1	;3	    *
   2071  10d8		       38		      sec		;2	    *
   2072  10d9		       e5 cf		      sbc	indy_y	;3	    *
   2073  10db		       c5 db		      cmp	indy_h	;3	    *
   2074  10dd		       b0 db		      bcs	Lf107	;2/3!	    *
   2075  10df		       a8		      tay		;2	    *
   2076  10e0		       b1 d9		      lda	(indy_anim),y	;5   =  20 *
   2077  10e2				   Lf0e2
   2078  10e2		       a4 80		      ldy	scan_line	;3	    *
   2079  10e4		       85 1c		      sta	GRP1	;3	    *
   2080  10e6		       85 02		      sta	WSYNC	;3   =   9 *
   2081  10e8							;---------------------------------------
   2082  10e8		       85 2a		      sta	HMOVE	;3	    *
   2083  10ea		       a9 02		      lda	#$02	;2	    *
   2084  10ec		       e4 d2		      cpx	ram_D2	;3	    *
   2085  10ee		       90 d2		      bcc	Lf0f9	;2/3	    *
   2086  10f0		       e4 dc		      cpx	snake_y	;3	    *
   2087  10f2		       90 dc		      bcc	Lf0f5	;2/3 =  15 *
   2088  10f4				   Lf0f4
   2089  10f4		       6a		      ror		;2   =   2 *
   2090  10f5				   Lf0f5
   2091  10f5		       85 1f		      sta	ENABL	;3	    *
   2092  10f7		       90 93		      bcc	Lf08c	;2/3 =   5 *
   2093  10f9				   Lf0f9
   2094  10f9		       90 f9		      bcc	Lf0f4	;2/3 =   2 *
   2095  10fb				   Lf0fb
   2096  10fb		       ea		      nop		;2	    *
   2097  10fc		       4c ca f0 	      jmp	Lf0ca	;3   =   5 *
   2098  10ff
   2099  10ff				   Lf0ff
   2100  10ff		       48		      pha		;3	    *
   2101  1100		       68		      pla		;4	    *
   2102  1101		       48		      pha		;3	    *
   2103  1102		       68		      pla		;4	    *
   2104  1103		       ea		      nop		;2	    *
   2105  1104		       4c ce f0 	      jmp	Lf0ce	;3   =  19 *
   2106  1107
   2107  1107				   Lf107
   2108  1107		       a9 00		      lda	#$00	;2	    *
   2109  1109		       f0 d7		      beq	Lf0e2	;2/3!=   4 *
   2110  110b				   Lf10b
   2111  110b		       e8		      inx		;2	    *
   2112  110c		       85 2b		      sta	HMCLR	;3	    *
   2113  110e		       e0 a0		      cpx	#$a0	;2	    *
   2114  1110		       90 a0		      bcc	Lf140	;2/3	    *
   2115  1112		       4c 00 00 	      jmp	Lf1ea	;3   =  12 *
   2116  1115
   2117  1115				   Lf115
   2118  1115		       85 02		      sta	WSYNC	;3   =   3 *
   2119  1117							;---------------------------------------
   2120  1117		       85 2a		      sta	HMOVE	;3	    *
   2121  1119		       e8		      inx		;2	    *
   2122  111a		       a5 84		      lda	ram_84	;3	    *
   2123  111c		       85 1b		      sta	GRP0	;3	    *
   2124  111e		       a5 85		      lda	ram_85	;3	    *
   2125  1120		       85 06		      sta	COLUP0	;3	    *
   2126  1122		       8a		      txa		;2	    *
   2127  1123		       a2 1f		      ldx	#$1f	;2	    *
   2128  1125		       9a		      txs		;2	    *
   2129  1126		       aa		      tax		;2	    *
   2130  1127		       4a		      lsr		;2	    *
   2131  1128		       c5 d2		      cmp	ram_D2	;3	    *
   2132  112a		       08		      php		;3	    *
   2133  112b		       c5 d1		      cmp	ram_D1	;3	    *
   2134  112d		       08		      php		;3	    *
   2135  112e		       c5 d0		      cmp	ram_D0	;3	    *
   2136  1130		       08		      php		;3	    *
   2137  1131		       38		      sec		;2	    *
   2138  1132		       e5 cf		      sbc	indy_y	;3	    *
   2139  1134		       c5 db		      cmp	indy_h	;3	    *
   2140  1136		       b0 d3		      bcs	Lf10b	;2/3	    *
   2141  1138		       a8		      tay		;2	    *
   2142  1139		       b1 d9		      lda	(indy_anim),y	;5	    *
   2143  113b		       85 2b		      sta	HMCLR	;3	    *
   2144  113d		       e8		      inx		;2	    *
   2145  113e		       85 1c		      sta	GRP1	;3   =  70 *
   2146  1140				   Lf140
   2147  1140		       85 02		      sta	WSYNC	;3   =   3 *
   2148  1142							;---------------------------------------
   2149  1142		       85 2a		      sta	HMOVE	;3	    *
   2150  1144		       24 d4		      bit	ram_D4	;3	    *
   2151  1146		       10 d4		      bpl	Lf157	;2/3	    *
   2152  1148		       a4 89		      ldy	ram_89	;3	    *
   2153  114a		       a5 88		      lda	ram_88	;3	    *
   2154  114c		       46 d4		      lsr	ram_D4	;5   =  19 *
   2155  114e				   Lf14e
   2156  114e		       88		      dey		;2	    *
   2157  114f		       10 fd		      bpl	Lf14e	;2/3	    *
   2158  1151		       85 10		      sta	RESP0	;3	    *
   2159  1153		       85 20		      sta	HMP0	;3	    *
   2160  1155		       30 be		      bmi	Lf115	;2/3 =  12 *
   2161  1157				   Lf157
   2162  1157		       50 be		      bvc	Lf177	;2/3	    *
   2163  1159		       8a		      txa		;2	    *
   2164  115a		       29 0f		      and	#$0f	;2	    *
   2165  115c		       a8		      tay		;2	    *
   2166  115d		       b1 dd		      lda	(emy_anim),y	;5	    *
   2167  115f		       85 1b		      sta	GRP0	;3	    *
   2168  1161		       b1 d6		      lda	(ram_D6),y	;5	    *
   2169  1163		       85 06		      sta	COLUP0	;3	    *
   2170  1165		       c8		      iny		;2	    *
   2171  1166		       b1 dd		      lda	(emy_anim),y	;5	    *
   2172  1168		       85 84		      sta	ram_84	;3	    *
   2173  116a		       b1 d6		      lda	(ram_D6),y	;5	    *
   2174  116c		       85 85		      sta	ram_85	;3	    *
   2175  116e		       c4 dc		      cpy	snake_y	;3	    *
   2176  1170		       90 dc		      bcc	Lf174	;2/3	    *
   2177  1172		       46 d4		      lsr	ram_D4	;5   =  52 *
   2178  1174				   Lf174
   2179  1174		       4c 15 f1 	      jmp	Lf115	;3   =   3 *
   2180  1177
   2181  1177				   Lf177
   2182  1177		       a9 20		      lda	#$20	;2	    *
   2183  1179		       24 d4		      bit	ram_D4	;3	    *
   2184  117b		       f0 d4		      beq	Lf1a7	;2/3	    *
   2185  117d		       8a		      txa		;2	    *
   2186  117e		       4a		      lsr		;2	    *
   2187  117f		       4a		      lsr		;2	    *
   2188  1180		       4a		      lsr		;2	    *
   2189  1181		       4a		      lsr		;2	    *
   2190  1182		       4a		      lsr		;2	    *
   2191  1183		       b0 90		      bcs	Lf115	;2/3	    *
   2192  1185		       a8		      tay		;2	    *
   2193  1186		       84 87		      sty	ram_87	;3	    *
   2194  1188		       b9 df 00 	      lda.wy	ram_DF,y	;4	    *
   2195  118b		       85 0b		      sta	REFP0	;3	    *
   2196  118d		       85 04		      sta	NUSIZ0	;3	    *
   2197  118f		       85 86		      sta	ram_86	;3	    *
   2198  1191		       10 86		      bpl	Lf1a2	;2/3	    *
   2199  1193		       a5 96		      lda	ram_96	;3	    *
   2200  1195		       85 dd		      sta	emy_anim	;3	    *
   2201  1197		       a9 65		      lda	#$65	;2	    *
   2202  1199		       85 d6		      sta	ram_D6	;3	    *
   2203  119b		       a9 00		      lda	#$00	;2	    *
   2204  119d		       85 d4		      sta	ram_D4	;3	    *
   2205  119f		       4c 15 f1 	      jmp	Lf115	;3   =  60 *
   2206  11a2
   2207  11a2				   Lf1a2
   2208  11a2		       46 d4		      lsr	ram_D4	;5	    *
   2209  11a4		       4c 15 f1 	      jmp	Lf115	;3   =   8 *
   2210  11a7
   2211  11a7				   Lf1a7
   2212  11a7		       4a		      lsr		;2	    *
   2213  11a8		       24 d4		      bit	ram_D4	;3	    *
   2214  11aa		       f0 d4		      beq	Lf1ce	;2/3	    *
   2215  11ac		       a4 87		      ldy	ram_87	;3	    *
   2216  11ae		       a9 08		      lda	#$08	;2	    *
   2217  11b0		       25 86		      and	ram_86	;3	    *
   2218  11b2		       f0 86		      beq	Lf1b6	;2/3	    *
   2219  11b4		       a9 03		      lda	#$03	;2   =  19 *
   2220  11b6				   Lf1b6
   2221  11b6		       59 e5 00 	      eor.wy	ram_E5,y	;4	    *
   2222  11b9		       29 03		      and	#$03	;2	    *
   2223  11bb		       a8		      tay		;2	    *
   2224  11bc		       b9 00 00 	      lda	Lfc40,y	;4	    *
   2225  11bf		       85 dd		      sta	emy_anim	;3	    *
   2226  11c1		       a9 44		      lda	#$44	;2	    *
   2227  11c3		       85 d6		      sta	ram_D6	;3	    *
   2228  11c5		       a9 0f		      lda	#$0f	;2	    *
   2229  11c7		       85 dc		      sta	snake_y	;3	    *
   2230  11c9		       46 d4		      lsr	ram_D4	;5	    *
   2231  11cb		       4c 15 f1 	      jmp	Lf115	;3   =  33 *
   2232  11ce
   2233  11ce				   Lf1ce
   2234  11ce		       8a		      txa		;2	    *
   2235  11cf		       29 1f		      and	#$1f	;2	    *
   2236  11d1		       c9 0c		      cmp	#$0c	;2	    *
   2237  11d3		       f0 0c		      beq	Lf1d8	;2/3	    *
   2238  11d5		       4c 15 f1 	      jmp	Lf115	;3   =  11 *
   2239  11d8
   2240  11d8				   Lf1d8
   2241  11d8		       a4 87		      ldy	ram_87	;3	    *
   2242  11da		       b9 ee 00 	      lda.wy	ram_EE,y	;4	    *
   2243  11dd		       85 88		      sta	ram_88	;3	    *
   2244  11df		       29 0f		      and	#$0f	;2	    *
   2245  11e1		       85 89		      sta	ram_89	;3	    *
   2246  11e3		       a9 80		      lda	#$80	;2	    *
   2247  11e5		       85 d4		      sta	ram_D4	;3	    *
   2248  11e7		       4c 15 f1 	      jmp	Lf115	;3   =  23 *
   2249  11ea
   2250  11ea				   Lf1ea
   2251  11ea		       85 02		      sta	WSYNC	;3   =   3
   2252  11ec							;---------------------------------------
   2253  11ec		       85 2a		      sta	HMOVE	;3	   
   2254  11ee		       a2 ff		      ldx	#$ff	;2	   
   2255  11f0		       86 0e		      stx	PF1	;3	   
   2256  11f2		       86 0f		      stx	PF2	;3	   
   2257  11f4		       e8		      inx		;2	   
   2258  11f5		       86 1b		      stx	GRP0	;3	   
   2259  11f7		       86 1c		      stx	GRP1	;3	   
   2260  11f9		       86 1d		      stx	ENAM0	;3	   
   2261  11fb		       86 1e		      stx	ENAM1	;3	   
   2262  11fd		       86 1f		      stx	ENABL	;3	   
   2263  11ff		       85 02		      sta	WSYNC	;3   =  31
   2264  1201							;---------------------------------------
   2265  1201		       85 2a		      sta	HMOVE	;3	   
   2266  1203		       a9 03		      lda	#$03	;2	   
   2267  1205		       a0 00		      ldy	#$00	;2	   
   2268  1207		       84 0c		      sty	REFP1	;3	   
   2269  1209		       85 04		      sta	NUSIZ0	;3	   
   2270  120b		       85 05		      sta	NUSIZ1	;3	   
   2271  120d		       85 25		      sta	VDELP0	;3	   
   2272  120f		       85 26		      sta	VDELP1	;3	   
   2273  1211		       84 1b		      sty	GRP0	;3	   
   2274  1213		       84 1c		      sty	GRP1	;3	   
   2275  1215		       84 1b		      sty	GRP0	;3	   
   2276  1217		       84 1c		      sty	GRP1	;3	   
   2277  1219		       ea		      nop		;2	   
   2278  121a		       85 10		      sta	RESP0	;3	   
   2279  121c		       85 11		      sta	RESP1	;3	   
   2280  121e		       84 21		      sty	HMP1	;3	   
   2281  1220		       a9 f0		      lda	#$f0	;2	   
   2282  1222		       85 20		      sta	HMP0	;3	   
   2283  1224		       84 0b		      sty	REFP0	;3	   
   2284  1226		       85 02		      sta	WSYNC	;3   =  56
   2285  1228							;---------------------------------------
   2286  1228		       85 2a		      sta	HMOVE	;3	   
   2287  122a		       a9 1a		      lda	#$1a	;2	   
   2288  122c		       85 06		      sta	COLUP0	;3	   
   2289  122e		       85 07		      sta	COLUP1	;3	   
   2290  1230		       a5 c3		      lda	cursor_pos	;3	   
   2291  1232		       4a		      lsr		;2	   
   2292  1233		       a8		      tay		;2	   
   2293  1234		       b9 00 00 	      lda	Lfff2,y	;4	   
   2294  1237		       85 24		      sta	HMBL	;3	   
   2295  1239		       29 0f		      and	#$0f	;2	   
   2296  123b		       a8		      tay		;2	   
   2297  123c		       a2 00		      ldx	#$00	;2	   
   2298  123e		       86 20		      stx	HMP0	;3	   
   2299  1240		       85 02		      sta	WSYNC	;3   =  37
   2300  1242							;---------------------------------------
   2301  1242		       86 0d		      stx	PF0	;3	   
   2302  1244		       86 09		      stx	COLUBK	;3	   
   2303  1246		       86 0e		      stx	PF1	;3	   
   2304  1248		       86 0f		      stx	PF2	;3   =  12
   2305  124a				   Lf24a
   2306  124a		       88		      dey		;2	   
   2307  124b		       10 fd		      bpl	Lf24a	;2/3	   
   2308  124d		       85 14		      sta	RESBL	;3	   
   2309  124f		       86 0a		      stx	CTRLPF	;3	   
   2310  1251		       85 02		      sta	WSYNC	;3   =  13
   2311  1253							;---------------------------------------
   2312  1253		       85 2a		      sta	HMOVE	;3	   
   2313  1255		       a9 3f		      lda	#$3f	;2	   
   2314  1257		       25 82		      and	frame_counter	;3	   
   2315  1259		       d0 82		      bne	draw_menu	;2/3	   
   2316  125b		       a9 3f		      lda	#$3f	;2	   
   2317  125d		       25 83		      and	time_of_day	;3	   
   2318  125f		       d0 83		      bne	draw_menu	;2/3	   
   2319  1261		       a5 b5		      lda	ram_B5	;3	    *
   2320  1263		       29 0f		      and	#$0f	;2	    *
   2321  1265		       f0 0f		      beq	draw_menu	;2/3	    *
   2322  1267		       c9 0f		      cmp	#$0f	;2	    *
   2323  1269		       f0 0f		      beq	draw_menu	;2/3	    *
   2324  126b		       e6 b5		      inc	ram_B5	;5   =  33 *
   2325  126d				   draw_menu
   2326  126d		       85 02		      sta	WSYNC	;Draw Blank Line
   2327  126f		       a9 42		      lda	#$42	;Set red...
   2328  1271		       85 09		      sta	COLUBK	;...as the background color
   2329  1273		       85 02		      sta	WSYNC	;Draw four more scanlines
   2330  1275		       85 02		      sta	WSYNC	;
   2331  1277		       85 02		      sta	WSYNC	;
   2332  1279		       85 02		      sta	WSYNC	;
   2333  127b		       a9 07		      lda	#$07	;2	   
   2334  127d		       85 84		      sta	ram_84	;3   =   5
   2335  127f				   draw_inventory
   2336  127f		       a4 84		      ldy	ram_84	;3	   
   2337  1281		       b1 b7		      lda	(inv_slot1_lo),y	;5	   
   2338  1283		       85 1b		      sta	GRP0	;3	   
   2339  1285		       85 02		      sta	WSYNC	;3   =  14
   2340  1287							;---------------------------------------
   2341  1287		       b1 b9		      lda	(inv_slot2_lo),y	;5	   
   2342  1289		       85 1c		      sta	GRP1	;3	   
   2343  128b		       b1 bb		      lda	(inv_slot3_lo),y	;5	   
   2344  128d		       85 1b		      sta	GRP0	;3	   
   2345  128f		       b1 bd		      lda	(inv_slot4_lo),y	;5	   
   2346  1291		       85 85		      sta	ram_85	;3	   
   2347  1293		       b1 bf		      lda	(pwatch_state),y	;5	   
   2348  1295		       aa		      tax		;2	   
   2349  1296		       b1 c1		      lda	(inv_slot6_lo),y	;5	   
   2350  1298		       a8		      tay		;2	   
   2351  1299		       a5 85		      lda	ram_85	;3	   
   2352  129b		       85 1c		      sta	GRP1	;3	   
   2353  129d		       86 1b		      stx	GRP0	;3	   
   2354  129f		       84 1c		      sty	GRP1	;3	   
   2355  12a1		       84 1b		      sty	GRP0	;3	   
   2356  12a3		       c6 84		      dec	ram_84	;5	   
   2357  12a5		       10 d8		      bpl	draw_inventory	;2/3	   
   2358  12a7		       a9 00		      lda	#$00	;2	   
   2359  12a9		       85 02		      sta	WSYNC	;3   =  65
   2360  12ab							;---------------------------------------
   2361  12ab		       85 1b		      sta	GRP0	;3	   
   2362  12ad		       85 1c		      sta	GRP1	;3	   
   2363  12af		       85 1b		      sta	GRP0	;3	   
   2364  12b1		       85 1c		      sta	GRP1	;3	   
   2365  12b3		       85 04		      sta	NUSIZ0	;3	   
   2366  12b5		       85 05		      sta	NUSIZ1	;3	   
   2367  12b7		       85 25		      sta	VDELP0	;3	   
   2368  12b9		       85 26		      sta	VDELP1	;3	   
   2369  12bb		       85 02		      sta	WSYNC	;3   =  27
   2370  12bd							;---------------------------------------
   2371  12bd		       85 02		      sta	WSYNC	;3   =   3
   2372  12bf							;---------------------------------------
   2373  12bf		       a0 02		      ldy	#$02	;2	   
   2374  12c1		       a5 c4		      lda	ram_C4	;3	   
   2375  12c3		       d0 c4		      bne	Lf2c6	;2/3	   
   2376  12c5		       88		      dey		;2   =   9
   2377  12c6				   Lf2c6
   2378  12c6		       84 1f		      sty	ENABL	;3	   
   2379  12c8		       a0 08		      ldy	#$08	;2	   
   2380  12ca		       84 08		      sty	COLUPF	;3	   
   2381  12cc		       85 02		      sta	WSYNC	;3   =  11
   2382  12ce							;---------------------------------------
   2383  12ce		       85 02		      sta	WSYNC	;3   =   3
   2384  12d0							;---------------------------------------
   2385  12d0		       a0 00		      ldy	#$00	;2	   
   2386  12d2		       84 1f		      sty	ENABL	;3	   
   2387  12d4		       85 02		      sta	WSYNC	;3   =   8
   2388  12d6							;---------------------------------------
   2389  12d6		       85 02		      sta	WSYNC	;3   =   3
   2390  12d8							;---------------------------------------
   2391  12d8		       85 02		      sta	WSYNC	;3   =   3
   2392  12da							;---------------------------------------
   2393  12da		       a2 0f		      ldx	#$0f	;2	   
   2394  12dc		       86 01		      stx	VBLANK	;3	   
   2395  12de		       a2 24		      ldx	#$24	;2	   
   2396  12e0		       8e 96 02 	      stx	TIM64T	;4	   
   2397  12e3		       a2 ff		      ldx	#$ff	;2	   
   2398  12e5		       9a		      txs		;2	   
   2399  12e6		       a2 01		      ldx	#$01	;2   =  17
   2400  12e8				   Lf2e8
   2401  12e8		       b5 a2		      lda	ram_A2,x	;4	   
   2402  12ea		       95 15		      sta	AUDC0,x	;4	   
   2403  12ec		       95 19		      sta	AUDV0,x	;4	   
   2404  12ee		       30 19		      bmi	Lf2fb	;2/3	   
   2405  12f0		       a0 00		      ldy	#$00	;2	   
   2406  12f2		       94 a2		      sty	ram_A2,x	;4   =  20
   2407  12f4				   Lf2f4
   2408  12f4		       95 17		      sta	AUDF0,x	;4	   
   2409  12f6		       ca		      dex		;2	   
   2410  12f7		       10 ef		      bpl	Lf2e8	;2/3	   
   2411  12f9		       30 ef		      bmi	Lf320	;2/3!=  10
   2412  12fb				   Lf2fb
   2413  12fb		       c9 9c		      cmp	#$9c	;2	   
   2414  12fd		       d0 9c		      bne	Lf314	;2/3!	   
   2415  12ff		       a9 0f		      lda	#$0f	;2	   
   2416  1301		       25 82		      and	frame_counter	;3	   
   2417  1303		       d0 82		      bne	Lf30d	;2/3	   
   2418  1305		       c6 a4		      dec	diamond_h	;5	   
   2419  1307		       10 a4		      bpl	Lf30d	;2/3	   
   2420  1309		       a9 17		      lda	#$17	;2	   
   2421  130b		       85 a4		      sta	diamond_h	;3   =  23
   2422  130d				   Lf30d
   2423  130d		       a4 a4		      ldy	diamond_h	;3	   
   2424  130f		       b9 00 00 	      lda	Lfbe8,y	;4	   
   2425  1312		       d0 e0		      bne	Lf2f4	;2/3!=   9
   2426  1314				   Lf314
   2427  1314		       a5 82		      lda	frame_counter	;3	    *
   2428  1316		       4a		      lsr		;2	    *
   2429  1317		       4a		      lsr		;2	    *
   2430  1318		       4a		      lsr		;2	    *
   2431  1319		       4a		      lsr		;2	    *
   2432  131a		       a8		      tay		;2	    *
   2433  131b		       b9 00 00 	      lda	Lfaee,y	;4	    *
   2434  131e		       d0 d4		      bne	Lf2f4	;2/3!=  19 *
   2435  1320				   Lf320
   2436  1320		       a5 c5		      lda	current_inv	;3	   
   2437  1322		       c9 0f		      cmp	#$0f	;2	   
   2438  1324		       f0 0f		      beq	Lf330	;2/3	   
   2439  1326		       c9 02		      cmp	#$02	;2	   
   2440  1328		       d0 02		      bne	Lf344	;2/3	   
   2441  132a		       a9 84		      lda	#$84	;2	    *
   2442  132c		       85 a3		      sta	ram_A3	;3	    *
   2443  132e		       d0 a3		      bne	Lf348	;2/3 =  18 *
   2444  1330				   Lf330
   2445  1330		       24 3d		      bit	INPT5|$30	;3	    *
   2446  1332		       10 3d		      bpl	Lf338	;2/3	    *
   2447  1334		       a9 78		      lda	#$78	;2	    *
   2448  1336		       d0 78		      bne	Lf340	;2/3 =   9 *
   2449  1338				   Lf338
   2450  1338		       a5 83		      lda	time_of_day	;3	    *
   2451  133a		       29 e0		      and	#$e0	;2	    *
   2452  133c		       4a		      lsr		;2	    *
   2453  133d		       4a		      lsr		;2	    *
   2454  133e		       69 98		      adc	#$98	;2   =  11 *
   2455  1340				   Lf340
   2456  1340		       a6 c3		      ldx	cursor_pos	;3	    *
   2457  1342		       95 b7		      sta	inv_slot1_lo,x	;4   =   7 *
   2458  1344				   Lf344
   2459  1344		       a9 00		      lda	#$00	;2	   
   2460  1346		       85 a3		      sta	ram_A3	;3   =   5
   2461  1348				   Lf348
   2462  1348		       24 93		      bit	ram_93	;3	   
   2463  134a		       10 93		      bpl	Lf371	;2/3	   
   2464  134c		       a5 82		      lda	frame_counter	;3	    *
   2465  134e		       29 07		      and	#$07	;2	    *
   2466  1350		       c9 05		      cmp	#$05	;2	    *
   2467  1352		       90 05		      bcc	Lf365	;2/3	    *
   2468  1354		       a2 04		      ldx	#$04	;2	    *
   2469  1356		       a0 01		      ldy	#$01	;2	    *
   2470  1358		       24 9d		      bit	ram_9D	;3	    *
   2471  135a		       30 9d		      bmi	Lf360	;2/3	    *
   2472  135c		       24 a1		      bit	ram_A1	;3	    *
   2473  135e		       10 a1		      bpl	Lf362	;2/3 =  28 *
   2474  1360				   Lf360
   2475  1360		       a0 03		      ldy	#$03	;2   =   2 *
   2476  1362				   Lf362
   2477  1362		       20 00 00 	      jsr	Lf8b3	;6   =   6 *
   2478  1365				   Lf365
   2479  1365		       a5 82		      lda	frame_counter	;3	    *
   2480  1367		       29 06		      and	#$06	;2	    *
   2481  1369		       0a		      asl		;2	    *
   2482  136a		       0a		      asl		;2	    *
   2483  136b		       85 d6		      sta	ram_D6	;3	    *
   2484  136d		       a9 fd		      lda	#$fd	;2	    *
   2485  136f		       85 d7		      sta	ram_D7	;3   =  17 *
   2486  1371				   Lf371
   2487  1371		       a2 02		      ldx	#$02	;2   =   2
   2488  1373				   Lf373
   2489  1373		       20 00 00 	      jsr	Lfef4	;6	   
   2490  1376		       e8		      inx		;2	   
   2491  1377		       e0 05		      cpx	#$05	;2	   
   2492  1379		       90 f8		      bcc	Lf373	;2/3	   
   2493  137b		       24 9d		      bit	ram_9D	;3	   
   2494  137d		       10 9d		      bpl	Lf3bf	;2/3	   
   2495  137f		       a5 82		      lda	frame_counter	;3	    *
   2496  1381		       70 82		      bvs	Lf39d	;2/3	    *
   2497  1383		       29 0f		      and	#$0f	;2	    *
   2498  1385		       d0 0f		      bne	Lf3c5	;2/3	    *
   2499  1387		       a6 db		      ldx	indy_h	;3	    *
   2500  1389		       ca		      dex		;2	    *
   2501  138a		       86 a3		      stx	ram_A3	;3	    *
   2502  138c		       e0 03		      cpx	#$03	;2	    *
   2503  138e		       90 03		      bcc	Lf398	;2/3	    *
   2504  1390		       a9 8f		      lda	#$8f	;2	    *
   2505  1392		       85 d1		      sta	ram_D1	;3	    *
   2506  1394		       86 db		      stx	indy_h	;3	    *
   2507  1396		       b0 db		      bcs	Lf3c5	;2/3 =  48 *
   2508  1398				   Lf398
   2509  1398		       85 82		      sta	frame_counter	;3	    *
   2510  139a		       38		      sec		;2	    *
   2511  139b		       66 9d		      ror	ram_9D	;5   =  10 *
   2512  139d				   Lf39d
   2513  139d		       c9 3c		      cmp	#$3c	;2	    *
   2514  139f		       90 3c		      bcc	Lf3a9	;2/3	    *
   2515  13a1		       d0 3c		      bne	Lf3a5	;2/3	    *
   2516  13a3		       85 a3		      sta	ram_A3	;3   =   9 *
   2517  13a5				   Lf3a5
   2518  13a5		       a0 00		      ldy	#$00	;2	    *
   2519  13a7		       84 db		      sty	indy_h	;3   =   5 *
   2520  13a9				   Lf3a9
   2521  13a9		       c9 78		      cmp	#$78	;2	    *
   2522  13ab		       90 78		      bcc	Lf3c5	;2/3	    *
   2523  13ad		       a9 0b		      lda	#$0b	;2	    *
   2524  13af		       85 db		      sta	indy_h	;3	    *
   2525  13b1		       85 a3		      sta	ram_A3	;3	    *
   2526  13b3		       85 9d		      sta	ram_9D	;3	    *
   2527  13b5		       c6 9f		      dec	lives_left	;5	    *
   2528  13b7		       10 9f		      bpl	Lf3c5	;2/3	    *
   2529  13b9		       a9 ff		      lda	#$ff	;2	    *
   2530  13bb		       85 9d		      sta	ram_9D	;3	    *
   2531  13bd		       d0 9d		      bne	Lf3c5	;2/3 =  29 *
   2532  13bf				   Lf3bf
   2533  13bf		       a5 81		      lda	room_num	;3	   
   2534  13c1		       c9 0d		      cmp	#$0d	;2	   
   2535  13c3		       d0 0d		      bne	Lf3d0	;2/3 =   7
   2536  13c5				   Lf3c5
   2537  13c5		       a9 d8		      lda	#$d8	;2	   
   2538  13c7		       85 88		      sta	ram_88	;3	   
   2539  13c9		       a9 d3		      lda	#$d3	;2	   
   2540  13cb		       85 89		      sta	ram_89	;3	   
   2541  13cd		       4c 00 00 	      jmp	Lf493	;3   =  13
   2542  13d0
   2543  13d0				   Lf3d0
   2544  13d0		       24 8d		      bit	ram_8D	;3	    *
   2545  13d2		       70 8d		      bvs	Lf437	;2/3!	    *
   2546  13d4		       24 b4		      bit	ram_B4	;3	    *
   2547  13d6		       30 b4		      bmi	Lf437	;2/3!	    *
   2548  13d8		       24 9a		      bit	ram_9A	;3	    *
   2549  13da		       30 9a		      bmi	Lf437	;2/3!	    *
   2550  13dc		       a9 07		      lda	#$07	;2	    *
   2551  13de		       25 82		      and	frame_counter	;3	    *
   2552  13e0		       d0 82		      bne	Lf437	;2/3!	    *
   2553  13e2		       a5 c4		      lda	ram_C4	;3	    *
   2554  13e4		       29 06		      and	#$06	;2	    *
   2555  13e6		       f0 06		      beq	Lf437	;2/3!	    *
   2556  13e8		       a6 c3		      ldx	cursor_pos	;3	    *
   2557  13ea		       b5 b7		      lda	inv_slot1_lo,x	;4	    *
   2558  13ec		       c9 98		      cmp	#$98	;2	    *
   2559  13ee		       90 98		      bcc	Lf3f2	;2/3	    *
   2560  13f0		       a9 78		      lda	#$78	;2   =  42 *
   2561  13f2				   Lf3f2
   2562  13f2		       2c 80 02 	      bit	SWCHA	;4	    *
   2563  13f5		       30 80		      bmi	Lf407	;2/3!	    *
   2564  13f7		       95 b7		      sta	inv_slot1_lo,x	;4   =  10 *
   2565  13f9				   Lf3f9
   2566  13f9		       e8		      inx		;2	    *
   2567  13fa		       e8		      inx		;2	    *
   2568  13fb		       e0 0b		      cpx	#$0b	;2	    *
   2569  13fd		       90 0b		      bcc	Lf401	;2/3!	    *
   2570  13ff		       a2 00		      ldx	#$00	;2   =  10 *
   2571  1401				   Lf401
   2572  1401		       b4 b7		      ldy	inv_slot1_lo,x	;4	    *
   2573  1403		       f0 f4		      beq	Lf3f9	;2/3!	    *
   2574  1405		       d0 f4		      bne	Lf415	;2/3 =   8 *
   2575  1407				   Lf407
   2576  1407		       70 f4		      bvs	Lf437	;2/3	    *
   2577  1409		       95 b7		      sta	inv_slot1_lo,x	;4   =   6 *
   2578  140b				   Lf40b
   2579  140b		       ca		      dex		;2	    *
   2580  140c		       ca		      dex		;2	    *
   2581  140d		       10 b7		      bpl	Lf411	;2/3	    *
   2582  140f		       a2 0a		      ldx	#$0a	;2   =   8 *
   2583  1411				   Lf411
   2584  1411		       b4 b7		      ldy	inv_slot1_lo,x	;4	    *
   2585  1413		       f0 f6		      beq	Lf40b	;2/3 =   6 *
   2586  1415				   Lf415
   2587  1415		       86 c3		      stx	cursor_pos	;3	    *
   2588  1417		       98		      tya		;2	    *
   2589  1418		       4a		      lsr		;2	    *
   2590  1419		       4a		      lsr		;2	    *
   2591  141a		       4a		      lsr		;2	    *
   2592  141b		       85 c5		      sta	current_inv	;3	    *
   2593  141d		       c0 90		      cpy	#$90	;2	    *
   2594  141f		       d0 90		      bne	Lf437	;2/3	    *
   2595  1421		       a0 09		      ldy	#$09	;2	    *
   2596  1423		       c4 81		      cpy	room_num	;3	    *
   2597  1425		       d0 81		      bne	Lf437	;2/3	    *
   2598  1427		       a9 49		      lda	#$49	;2	    *
   2599  1429		       85 8d		      sta	ram_8D	;3	    *
   2600  142b		       a5 cf		      lda	indy_y	;3	    *
   2601  142d		       69 09		      adc	#$09	;2	    *
   2602  142f		       85 d1		      sta	ram_D1	;3	    *
   2603  1431		       a5 c9		      lda	indy_x	;3	    *
   2604  1433		       69 09		      adc	#$09	;2	    *
   2605  1435		       85 cb		      sta	ram_CB	;3   =  46 *
   2606  1437				   Lf437
   2607  1437		       a5 8d		      lda	ram_8D	;3	    *
   2608  1439		       10 8d		      bpl	Lf454	;2/3	    *
   2609  143b		       c9 bf		      cmp	#$bf	;2	    *
   2610  143d		       b0 bf		      bcs	Lf44b	;2/3	    *
   2611  143f		       69 10		      adc	#$10	;2	    *
   2612  1441		       85 8d		      sta	ram_8D	;3	    *
   2613  1443		       a2 03		      ldx	#$03	;2	    *
   2614  1445		       20 00 00 	      jsr	Lfcea	;6	    *
   2615  1448		       4c 00 00 	      jmp	Lf48b	;3   =  25 *
   2616  144b
   2617  144b				   Lf44b
   2618  144b		       a9 70		      lda	#$70	;2	    *
   2619  144d		       85 d1		      sta	ram_D1	;3	    *
   2620  144f		       4a		      lsr		;2	    *
   2621  1450		       85 8d		      sta	ram_8D	;3	    *
   2622  1452		       d0 8d		      bne	Lf48b	;2/3 =  12 *
   2623  1454				   Lf454
   2624  1454		       24 8d		      bit	ram_8D	;3	    *
   2625  1456		       50 8d		      bvc	Lf48b	;2/3	    *
   2626  1458		       a2 03		      ldx	#$03	;2	    *
   2627  145a		       20 00 00 	      jsr	Lfcea	;6	    *
   2628  145d		       a5 cb		      lda	ram_CB	;3	    *
   2629  145f		       38		      sec		;2	    *
   2630  1460		       e9 04		      sbc	#$04	;2	    *
   2631  1462		       c5 c9		      cmp	indy_x	;3	    *
   2632  1464		       d0 c9		      bne	Lf46a	;2/3	    *
   2633  1466		       a9 03		      lda	#$03	;2	    *
   2634  1468		       d0 03		      bne	Lf481	;2/3 =  29 *
   2635  146a				   Lf46a
   2636  146a		       c9 11		      cmp	#$11	;2	    *
   2637  146c		       f0 11		      beq	Lf472	;2/3	    *
   2638  146e		       c9 84		      cmp	#$84	;2	    *
   2639  1470		       d0 84		      bne	Lf476	;2/3 =   8 *
   2640  1472				   Lf472
   2641  1472		       a9 0f		      lda	#$0f	;2	    *
   2642  1474		       d0 0f		      bne	Lf481	;2/3 =   4 *
   2643  1476				   Lf476
   2644  1476		       a5 d1		      lda	ram_D1	;3	    *
   2645  1478		       38		      sec		;2	    *
   2646  1479		       e9 05		      sbc	#$05	;2	    *
   2647  147b		       c5 cf		      cmp	indy_y	;3	    *
   2648  147d		       d0 cf		      bne	Lf487	;2/3	    *
   2649  147f		       a9 0c		      lda	#$0c	;2   =  14 *
   2650  1481				   Lf481
   2651  1481		       45 8d		      eor	ram_8D	;3	    *
   2652  1483		       85 8d		      sta	ram_8D	;3	    *
   2653  1485		       d0 8d		      bne	Lf48b	;2/3 =   8 *
   2654  1487				   Lf487
   2655  1487		       c9 4a		      cmp	#$4a	;2	    *
   2656  1489		       b0 e7		      bcs	Lf472	;2/3 =   4 *
   2657  148b				   Lf48b
   2658  148b		       a9 24		      lda	#$24	;2	    *
   2659  148d		       85 88		      sta	ram_88	;3	    *
   2660  148f		       a9 d0		      lda	#$d0	;2	    *
   2661  1491		       85 89		      sta	ram_89	;3   =  10 *
   2662  1493				   Lf493
   2663  1493		       a9 ad		      lda	#$ad	;2	   
   2664  1495		       85 84		      sta	ram_84	;3	   
   2665  1497		       a9 f8		      lda	#$f8	;2	   
   2666  1499		       85 85		      sta	ram_85	;3	   
   2667  149b		       a9 ff		      lda	#$ff	;2	   
   2668  149d		       85 86		      sta	ram_86	;3	   
   2669  149f		       a9 4c		      lda	#$4c	;2	   
   2670  14a1		       85 87		      sta	ram_87	;3	   
   2671  14a3		       4c 84 00 	      jmp.w	ram_84	;3   =  23
   2672  14a6
   2673  14a6				   Lf4a6
   2674  14a6		       85 02		      sta	WSYNC	;3   =   3
   2675  14a8							;---------------------------------------
   2676  14a8		       e0 12		      cpx	#$12	;2	   
   2677  14aa		       90 12		      bcc	Lf4d0	;2/3	   
   2678  14ac		       8a		      txa		;2	   
   2679  14ad		       e5 cf		      sbc	indy_y	;3	   
   2680  14af		       30 cf		      bmi	Lf4c9	;2/3	   
   2681  14b1		       c9 14		      cmp	#$14	;2	   
   2682  14b3		       b0 14		      bcs	Lf4bd	;2/3	   
   2683  14b5		       4a		      lsr		;2	   
   2684  14b6		       a8		      tay		;2	   
   2685  14b7		       b9 00 00 	      lda	indy_sprite,y	;4	   
   2686  14ba		       4c 00 00 	      jmp	Lf4c3	;3   =  26
   2687  14bd
   2688  14bd				   Lf4bd
   2689  14bd		       29 03		      and	#$03	;2	   
   2690  14bf		       a8		      tay		;2	   
   2691  14c0		       b9 00 00 	      lda	Lf9fc,y	;4   =   8
   2692  14c3				   Lf4c3
   2693  14c3		       85 1c		      sta	GRP1	;3	   
   2694  14c5		       a5 cf		      lda	indy_y	;3	   
   2695  14c7		       85 07		      sta	COLUP1	;3   =   9
   2696  14c9				   Lf4c9
   2697  14c9		       e8		      inx		;2	   
   2698  14ca		       e0 90		      cpx	#$90	;2	   
   2699  14cc		       b0 90		      bcs	Lf4ea	;2/3	   
   2700  14ce		       90 d6		      bcc	Lf4a6	;2/3 =   8
   2701  14d0				   Lf4d0
   2702  14d0		       24 9c		      bit	ram_9C	;3	   
   2703  14d2		       30 9c		      bmi	Lf4e5	;2/3	   
   2704  14d4		       8a		      txa		;2	   
   2705  14d5		       e9 07		      sbc	#$07	;2	   
   2706  14d7		       30 07		      bmi	Lf4e5	;2/3	   
   2707  14d9		       a8		      tay		;2	   
   2708  14da		       b9 00 00 	      lda	Lfb40,y	;4	   
   2709  14dd		       85 1c		      sta	GRP1	;3	   
   2710  14df		       8a		      txa		;2	   
   2711  14e0		       65 82		      adc	frame_counter	;3	   
   2712  14e2		       0a		      asl		;2	   
   2713  14e3		       85 07		      sta	COLUP1	;3   =  30
   2714  14e5				   Lf4e5
   2715  14e5		       e8		      inx		;2	   
   2716  14e6		       e0 0f		      cpx	#$0f	;2	   
   2717  14e8		       90 bc		      bcc	Lf4a6	;2/3 =   6
   2718  14ea				   Lf4ea
   2719  14ea		       85 02		      sta	WSYNC	;3   =   3
   2720  14ec							;---------------------------------------
   2721  14ec		       e0 20		      cpx	#$20	;2	   
   2722  14ee		       b0 20		      bcs	Lf511	;2/3!	   
   2723  14f0		       24 9c		      bit	ram_9C	;3	   
   2724  14f2		       30 9c		      bmi	Lf504	;2/3!	   
   2725  14f4		       8a		      txa		;2	   
   2726  14f5		       a0 7e		      ldy	#$7e	;2	   
   2727  14f7		       29 0e		      and	#$0e	;2	   
   2728  14f9		       d0 0e		      bne	Lf4fd	;2/3	   
   2729  14fb		       a0 ff		      ldy	#$ff	;2   =  19
   2730  14fd				   Lf4fd
   2731  14fd		       84 1b		      sty	GRP0	;3	   
   2732  14ff		       8a		      txa		;2	   
   2733  1500		       49 ff		      eor	#$ff	;2	   
   2734  1502		       85 06		      sta	COLUP0	;3   =  10
   2735  1504				   Lf504
   2736  1504		       e8		      inx		;2	   
   2737  1505		       e0 1d		      cpx	#$1d	;2	   
   2738  1507		       90 e1		      bcc	Lf4ea	;2/3!	   
   2739  1509		       a9 00		      lda	#$00	;2	   
   2740  150b		       85 1b		      sta	GRP0	;3	   
   2741  150d		       85 1c		      sta	GRP1	;3	   
   2742  150f		       f0 95		      beq	Lf4a6	;2/3!=  16
   2743  1511				   Lf511
   2744  1511		       8a		      txa		;2	   
   2745  1512		       e9 90		      sbc	#$90	;2	   
   2746  1514		       c9 0f		      cmp	#$0f	;2	   
   2747  1516		       90 0f		      bcc	Lf51b	;2/3	   
   2748  1518		       4c ea f1 	      jmp	Lf1ea	;3   =  11
   2749  151b
   2750  151b				   Lf51b
   2751  151b		       4a		      lsr		;2	   
   2752  151c		       4a		      lsr		;2	   
   2753  151d		       a8		      tay		;2	   
   2754  151e		       b9 00 00 	      lda	Lfef0,y	;4	   
   2755  1521		       85 1b		      sta	GRP0	;3	   
   2756  1523		       86 06		      stx	COLUP0	;3	   
   2757  1525		       e8		      inx		;2	   
   2758  1526		       d0 c2		      bne	Lf4ea	;2/3!	   
   2759  1528		       a5 81		      lda	room_num	;3	    *
   2760  152a		       0a		      asl		;2	    *
   2761  152b		       aa		      tax		;2	    *
   2762  152c		       bd 00 00 	      lda	Lfc89,x	;4	    *
   2763  152f		       48		      pha		;3	    *
   2764  1530		       bd 00 00 	      lda	Lfc88,x	;4	    *
   2765  1533		       48		      pha		;3	    *
   2766  1534		       60		      rts		;6   =  47 *
   2767  1535
   2768  1535		       a9 7f 85 ce*	      .byte.b	$a9,$7f,$85,$ce,$85,$d0,$85,$d2	; $f535 (*)
   2769  153d		       d0 5b a2 00*	      .byte.b	$d0,$5b,$a2,$00,$a0,$01,$24,$33	; $f53d (*)
   2770  1545		       30 14 24 b6*	      .byte.b	$30,$14,$24,$b6,$30,$10,$a5,$82	; $f545 (*)
   2771  154d		       29 07 d0 0d*	      .byte.b	$29,$07,$d0,$0d,$a0,$05,$a9,$4c	; $f54d (*)
   2772  1555		       85 cd a9 23*	      .byte.b	$85,$cd,$a9,$23,$85,$d3,$20,$b3	; $f555 (*)
   2773  155d		       f8 a9 80 85*	      .byte.b	$f8,$a9,$80,$85,$93,$a5,$ce,$29	; $f55d (*)
   2774  1565		       01 66 c8 2a*	      .byte.b	$01,$66,$c8,$2a,$a8,$6a,$26,$c8	; $f565 (*)
   2775  156d		       b9 ea fa 85*	      .byte.b	$b9,$ea,$fa,$85,$dd,$a9,$fc,$85	; $f56d (*)
   2776  1575		       de a5 8e 30*	      .byte.b	$de,$a5,$8e,$30,$20,$a2,$50,$86	; $f575 (*)
   2777  157d		       ca a2 26 86*	      .byte.b	$ca,$a2,$26,$86,$d0,$a5,$b6,$30	; $f57d (*)
   2778  1585		       14 24 9d 30*	      .byte.b	$14,$24,$9d,$30,$10,$29,$07,$d0	; $f585 (*)
   2779  158d		       04 a0 06 84*	      .byte.b	$04,$a0,$06,$84,$b6,$aa,$bd,$d2	; $f58d (*)
   2780  1595		       fc 85 8e c6*	      .byte.b	$fc,$85,$8e,$c6,$b6,$4c,$33,$f8	; $f595 (*)
   2781  159d		       a9 80 85 93*	      .byte.b	$a9,$80,$85,$93,$a2,$00,$24,$9d	; $f59d (*)
   2782  15a5		       30 04 24 95*	      .byte.b	$30,$04,$24,$95,$50,$0c,$a0,$05	; $f5a5 (*)
   2783  15ad		       a9 55 85 cd*	      .byte.b	$a9,$55,$85,$cd,$85,$d3,$a9,$01	; $f5ad (*)
   2784  15b5		       d0 04 a0 01*	      .byte.b	$d0,$04,$a0,$01,$a9,$03,$25,$82	; $f5b5 (*)
   2785  15bd		       d0 0f 20 b3*	      .byte.b	$d0,$0f,$20,$b3,$f8,$a5,$ce,$10	; $f5bd (*)
   2786  15c5		       08 c9 a0 90*	      .byte.b	$08,$c9,$a0,$90,$04,$e6,$ce,$e6	; $f5c5 (*)
   2787  15cd		       ce 50 0e a5*	      .byte.b	$ce,$50,$0e,$a5,$ce,$c9,$51,$90	; $f5cd (*)
   2788  15d5		       08 a5 95 85*	      .byte.b	$08,$a5,$95,$85,$99,$a9,$00,$85	; $f5d5 (*)
   2789  15dd		       95 a5 c8 c5*	      .byte.b	$95,$a5,$c8,$c5,$c9,$b0,$03,$ca	; $f5dd (*)
   2790  15e5		       49 03 86 0b*	      .byte.b	$49,$03,$86,$0b,$29,$03,$0a,$0a	; $f5e5 (*)
   2791  15ed		       0a 0a 85 dd*	      .byte.b	$0a,$0a,$85,$dd,$a5,$82,$29,$7f	; $f5ed (*)
   2792  15f5		       d0 20 a5 ce*	      .byte.b	$d0,$20,$a5,$ce,$c9,$4a,$b0,$1a	; $f5f5 (*)
   2793  15fd		       a4 98 f0 16*	      .byte.b	$a4,$98,$f0,$16,$88,$84,$98,$a0	; $f5fd (*)
   2794  1605		       8e 69 03 85*	      .byte.b	$8e,$69,$03,$85,$d0,$c5,$cf,$b0	; $f605 (*)
   2795  160d		       01 88 a5 c8*	      .byte.b	$01,$88,$a5,$c8,$69,$04,$85,$ca	; $f60d (*)
   2796  1615		       84 8e a0 7f*	      .byte.b	$84,$8e,$a0,$7f,$a5,$8e,$30,$02	; $f615 (*)
   2797  161d		       84 d0 a5 d1*	      .byte.b	$84,$d0,$a5,$d1,$c9,$52,$90,$02	; $f61d (*)
   2798  1625		       84 d1 4c 33*	      .byte.b	$84,$d1,$4c,$33,$f8,$a2,$3a,$86	; $f625 (*)
   2799  162d		       e9 a2 85 86*	      .byte.b	$e9,$a2,$85,$86,$e3,$a2,$03,$86	; $f62d (*)
   2800  1635		       ad d0 02 a2*	      .byte.b	$ad,$d0,$02,$a2,$04,$bd,$d8,$fc	; $f635 (*)
   2801  163d		       25 82 d0 15*	      .byte.b	$25,$82,$d0,$15,$b4,$e5,$a9,$08	; $f63d (*)
   2802  1645		       35 df d0 13*	      .byte.b	$35,$df,$d0,$13,$88,$c0,$14,$b0	; $f645 (*)
   2803  164d		       06 a9 08 55*	      .byte.b	$06,$a9,$08,$55,$df,$95,$df,$94	; $f64d (*)
   2804  1655		       e5 ca 10 e1*	      .byte.b	$e5,$ca,$10,$e1,$4c,$33,$f8,$c8	; $f655 (*)
   2805  165d		       c0 85 b0 ed*	      .byte.b	$c0,$85,$b0,$ed,$90,$f1,$24,$b4	; $f65d (*)
   2806  1665		       10 1e 50 04*	      .byte.b	$10,$1e,$50,$04,$c6,$c9,$d0,$18	; $f665 (*)
   2807  166d		       a5 82 6a 90*	      .byte.b	$a5,$82,$6a,$90,$13,$ad,$80,$02	; $f66d (*)
   2808  1675		       85 92 6a 6a*	      .byte.b	$85,$92,$6a,$6a,$6a,$b0,$04,$c6	; $f675 (*)
   2809  167d		       c9 d0 05 6a*	      .byte.b	$c9,$d0,$05,$6a,$b0,$02,$e6,$c9	; $f67d (*)
   2810  1685		       a9 02 25 b4*	      .byte.b	$a9,$02,$25,$b4,$d0,$06,$85,$8d	; $f685 (*)
   2811  168d		       a9 0b 85 ce*	      .byte.b	$a9,$0b,$85,$ce,$a6,$cf,$a5,$82	; $f68d (*)
   2812  1695		       24 b4 30 0a*	      .byte.b	$24,$b4,$30,$0a,$e0,$15,$90,$06	; $f695 (*)
   2813  169d		       e0 30 90 09*	      .byte.b	$e0,$30,$90,$09,$b0,$06,$6a,$90	; $f69d (*)
   2814  16a5		       04 4c 33 f8*	      .byte.b	$04,$4c,$33,$f8,$e8,$e8,$86,$cf	; $f6a5 (*)
   2815  16ad		       d0 f7 a5 c9*	      .byte.b	$d0,$f7,$a5,$c9,$c9,$64,$90,$07	; $f6ad (*)
   2816  16b5		       26 b2 18 66*	      .byte.b	$26,$b2,$18,$66,$b2,$10,$22,$c9	; $f6b5 (*)
   2817  16bd		       2c f0 06 a9*	      .byte.b	$2c,$f0,$06,$a9,$7f,$85,$d2,$d0	; $f6bd (*)
   2818  16c5		       18 24 b2 30*	      .byte.b	$18,$24,$b2,$30,$14,$a9,$30,$85	; $f6c5 (*)
   2819  16cd		       cc a0 00 84*	      .byte.b	$cc,$a0,$00,$84,$d2,$a0,$7f,$84	; $f6cd (*)
   2820  16d5		       dc 84 d5 e6*	      .byte.b	$dc,$84,$d5,$e6,$c9,$a9,$80,$85	; $f6d5 (*)
   2821  16dd		       9d 4c 33 f8*	      .byte.b	$9d,$4c,$33,$f8,$a4,$df,$88,$d0	; $f6dd (*)
   2822  16e5		       f8 a5 af 29*	      .byte.b	$f8,$a5,$af,$29,$07,$d0,$31,$a9	; $f6e5 (*)
   2823  16ed		       40 85 93 a5*	      .byte.b	$40,$85,$93,$a5,$83,$4a,$4a,$4a	; $f6ed (*)
   2824  16f5		       4a 4a aa bc*	      .byte.b	$4a,$4a,$aa,$bc,$dc,$fc,$be,$aa	; $f6f5 (*)
   2825  16fd		       fc 84 84 20*	      .byte.b	$fc,$84,$84,$20,$9d,$f8,$90,$05	; $f6fd (*)
   2826  1705		       e6 df d0 d5*	      .byte.b	$e6,$df,$d0,$d5,$00,$a4,$84,$98	; $f705 (*)
   2827  170d		       05 af 85 af*	      .byte.b	$05,$af,$85,$af,$b9,$a2,$fc,$85	; $f70d (*)
   2828  1715		       ce b9 a6 fc*	      .byte.b	$ce,$b9,$a6,$fc,$85,$df,$d0,$c1	; $f715 (*)
   2829  171d		       c9 04 b0 e4*	      .byte.b	$c9,$04,$b0,$e4,$26,$af,$38,$66	; $f71d (*)
   2830  1725		       af 30 dd a0*	      .byte.b	$af,$30,$dd,$a0,$00,$84,$d2,$a0	; $f725 (*)
   2831  172d		       7f 84 dc 84*	      .byte.b	$7f,$84,$dc,$84,$d5,$a9,$71,$85	; $f72d (*)
   2832  1735		       cc a0 4f a9*	      .byte.b	$cc,$a0,$4f,$a9,$3a,$c5,$cf,$d0	; $f735 (*)
   2833  173d		       0c a5 c5 c9*	      .byte.b	$0c,$a5,$c5,$c9,$07,$f0,$08,$a9	; $f73d (*)
   2834  1745		       5e c5 c9 f0*	      .byte.b	$5e,$c5,$c9,$f0,$02,$a0,$0d,$84	; $f745 (*)
   2835  174d		       df a5 83 38*	      .byte.b	$df,$a5,$83,$38,$e9,$10,$10,$05	; $f74d (*)
   2836  1755		       49 ff 38 69*	      .byte.b	$49,$ff,$38,$69,$00,$c9,$0b,$90	; $f755 (*)
   2837  175d		       02 a9 0b 85*	      .byte.b	$02,$a9,$0b,$85,$ce,$24,$b3,$10	; $f75d (*)
   2838  1765		       25 c9 08 b0*	      .byte.b	$25,$c9,$08,$b0,$1d,$a6,$c5,$e0	; $f765 (*)
   2839  176d		       0e d0 17 86*	      .byte.b	$0e,$d0,$17,$86,$ab,$a9,$04,$25	; $f76d (*)
   2840  1775		       82 d0 0f a5*	      .byte.b	$82,$d0,$0f,$a5,$8c,$29,$0f,$aa	; $f775 (*)
   2841  177d		       bd c2 fa 85*	      .byte.b	$bd,$c2,$fa,$85,$cb,$bd,$d2,$fa	; $f77d (*)
   2842  1785		       d0 02 a9 70*	      .byte.b	$d0,$02,$a9,$70,$85,$d1,$26,$b3	; $f785 (*)
   2843  178d		       a9 3a c5 cf*	      .byte.b	$a9,$3a,$c5,$cf,$d0,$0f,$c0,$4f	; $f78d (*)
   2844  1795		       f0 06 a9 5e*	      .byte.b	$f0,$06,$a9,$5e,$c5,$c9,$d0,$05	; $f795 (*)
   2845  179d		       38 66 b3 30*	      .byte.b	$38,$66,$b3,$30,$03,$18,$66,$b3	; $f79d (*)
   2846  17a5		       4c 33 f8 a9*	      .byte.b	$4c,$33,$f8,$a9,$08,$25,$c7,$d0	; $f7a5 (*)
   2847  17ad		       12 a9 4c 85*	      .byte.b	$12,$a9,$4c,$85,$cc,$a9,$2a,$85	; $f7ad (*)
   2848  17b5		       d2 a9 ba 85*	      .byte.b	$d2,$a9,$ba,$85,$d6,$a9,$fa,$85	; $f7b5 (*)
   2849  17bd		       d7 d0 04 a9*	      .byte.b	$d7,$d0,$04,$a9,$f0,$85,$d2,$a5	; $f7bd (*)
   2850  17c5		       b5 29 0f f0*	      .byte.b	$b5,$29,$0f,$f0,$69,$85,$dc,$a0	; $f7c5 (*)
   2851  17cd		       14 84 ce a0*	      .byte.b	$14,$84,$ce,$a0,$3b,$84,$e0,$c8	; $f7cd (*)
   2852  17d5		       84 d4 a9 c1*	      .byte.b	$84,$d4,$a9,$c1,$38,$e5,$dc,$85	; $f7d5 (*)
   2853  17dd		       dd d0 53 a5*	      .byte.b	$dd,$d0,$53,$a5,$82,$29,$18,$69	; $f7dd (*)
   2854  17e5		       e0 85 dd a5*	      .byte.b	$e0,$85,$dd,$a5,$82,$29,$07,$d0	; $f7e5 (*)
   2855  17ed		       21 a2 00 a0*	      .byte.b	$21,$a2,$00,$a0,$01,$a5,$cf,$c9	; $f7ed (*)
   2856  17f5		       3a 90 14 a5*	      .byte.b	$3a,$90,$14,$a5,$c9,$c9,$2b,$90	; $f7f5 (*)
   2857  17fd		       04 c9 6d 90*	      .byte.b	$04,$c9,$6d,$90,$0a,$a0,$05,$a9	; $f7fd (*)
   2858  1805		       4c 85 cd a9*	      .byte.b	$4c,$85,$cd,$a9,$0b,$85,$d3,$20	; $f805 (*)
   2859  180d		       b3 f8 a2 4e*	      .byte.b	$b3,$f8,$a2,$4e,$e4,$cf,$d0,$1e	; $f80d (*)
   2860  1815		       a6 c9 e0 76*	      .byte.b	$a6,$c9,$e0,$76,$f0,$04,$e0,$14	; $f815 (*)
   2861  181d		       d0 14 ad 80*	      .byte.b	$d0,$14,$ad,$80,$02,$29,$0f,$c9	; $f81d (*)
   2862  1825		       0d d0 0b 85*	      .byte.b	$0d,$d0,$0b,$85,$a6,$a9,$4c,$85	; $f825 (*)
   2863  182d		       c9 66 b5 38*	      .byte.b	$c9,$66,$b5,$38,$26,$b5,$a9,$0d	; $f82d (*)
   2864  1835		       85 88 a9 d8*	      .byte.b	$85,$88,$a9,$d8,$85,$89,$4c,$93	; $f835 (*)
   2865  183d		       f4 a9 40 85*	      .byte.b	$f4,$a9,$40,$85,$93,$d0,$ef	; $f83d (*)
   2866  1844
   2867  1844				   draw_field
   2868  1844		       85 02		      sta	WSYNC	;3   =   3
   2869  1846							;---------------------------------------
   2870  1846		       85 2b		      sta	HMCLR	;3	   
   2871  1848		       85 2c		      sta	CXCLR	;3	   
   2872  184a		       a0 ff		      ldy	#$ff	;2	   
   2873  184c		       84 0e		      sty	PF1	;3	   
   2874  184e		       84 0f		      sty	PF2	;3	   
   2875  1850		       a6 81		      ldx	room_num	;3	   
   2876  1852		       bd 00 00 	      lda	Lfaac,x	;4	   
   2877  1855		       85 0d		      sta	PF0	;3	   
   2878  1857		       c8		      iny		;2	   
   2879  1858		       85 02		      sta	WSYNC	;3   =  29
   2880  185a							;---------------------------------------
   2881  185a		       85 2a		      sta	HMOVE	;3	   
   2882  185c		       84 01		      sty	VBLANK	;3	   
   2883  185e		       84 80		      sty	scan_line	;3	   
   2884  1860		       e0 04		      cpx	#$04	;2	   
   2885  1862		       d0 04		      bne	Lf865	;2/3	   
   2886  1864		       88		      dey		;2   =  15 *
   2887  1865				   Lf865
   2888  1865		       84 1f		      sty	ENABL	;3	   
   2889  1867		       e0 0d		      cpx	#$0d	;2	   
   2890  1869		       f0 0d		      beq	Lf874	;2/3	   
   2891  186b		       24 9d		      bit	ram_9D	;3	    *
   2892  186d		       30 9d		      bmi	Lf874	;2/3	    *
   2893  186f		       ac 80 02 	      ldy	SWCHA	;4	    *
   2894  1872		       84 0c		      sty	REFP1	;3   =  19 *
   2895  1874				   Lf874
   2896  1874		       85 02		      sta	WSYNC	;3   =   3
   2897  1876							;---------------------------------------
   2898  1876		       85 2a		      sta	HMOVE	;3	   
   2899  1878		       85 02		      sta	WSYNC	;3   =   6
   2900  187a							;---------------------------------------
   2901  187a		       85 2a		      sta	HMOVE	;3	   
   2902  187c		       a4 81		      ldy	room_num	;3	   
   2903  187e		       85 02		      sta	WSYNC	;3   =   9
   2904  1880							;---------------------------------------
   2905  1880		       85 2a		      sta	HMOVE	;3	   
   2906  1882		       b9 00 00 	      lda	Lfa91,y	;4	   
   2907  1885		       85 0e		      sta	PF1	;3	   
   2908  1887		       b9 00 00 	      lda	Lfa9e,y	;4	   
   2909  188a		       85 0f		      sta	PF2	;3	   
   2910  188c		       be 00 00 	      ldx	Lf9ee,y	;4	   
   2911  188f		       bd 00 00 	      lda	Lfae3,x	;4	   
   2912  1892		       48		      pha		;3	   
   2913  1893		       bd 00 00 	      lda	Lfae2,x	;4	   
   2914  1896		       48		      pha		;3	   
   2915  1897		       a9 00		      lda	#$00	;2	   
   2916  1899		       aa		      tax		;2	   
   2917  189a		       85 84		      sta	ram_84	;3	   
   2918  189c		       60		      rts		;6   =  48
   2919  189d
   2920  189d
   2921  189d		       bd 75 fc 4a*	      .byte.b	$bd,$75,$fc,$4a,$a8,$b9,$e2,$fc	; $f89d (*)
   2922  18a5		       b0 06 25 c6*	      .byte.b	$b0,$06,$25,$c6,$f0,$01,$38,$60	; $f8a5 (*)
   2923  18ad		       25 c7 d0 fb*	      .byte.b	$25,$c7,$d0,$fb,$18,$60	; $f8ad (*)
   2924  18b3
   2925  18b3				   Lf8b3
   2926  18b3		       c0 01		      cpy	#$01	;2	    *
   2927  18b5		       d0 01		      bne	Lf8bb	;2/3	    *
   2928  18b7		       a5 cf		      lda	indy_y	;3	    *
   2929  18b9		       30 cf		      bmi	Lf8cc	;2/3 =   9 *
   2930  18bb				   Lf8bb
   2931  18bb		       b5 ce		      lda	enemy_y,x	;4	    *
   2932  18bd		       d9 ce 00 	      cmp.wy	enemy_y,y	;4	    *
   2933  18c0		       d0 ce		      bne	Lf8c6	;2/3	    *
   2934  18c2		       c0 05		      cpy	#$05	;2	    *
   2935  18c4		       b0 05		      bcs	Lf8ce	;2/3 =  14 *
   2936  18c6				   Lf8c6
   2937  18c6		       b0 05		      bcs	Lf8cc	;2/3	    *
   2938  18c8		       f6 ce		      inc	enemy_y,x	;6	    *
   2939  18ca		       d0 ce		      bne	Lf8ce	;2/3 =  10 *
   2940  18cc				   Lf8cc
   2941  18cc		       d6 ce		      dec	enemy_y,x	;6   =   6 *
   2942  18ce				   Lf8ce
   2943  18ce		       b5 c8		      lda	enemy_x,x	;4	    *
   2944  18d0		       d9 c8 00 	      cmp.wy	enemy_x,y	;4	    *
   2945  18d3		       d0 c8		      bne	Lf8d9	;2/3	    *
   2946  18d5		       c0 05		      cpy	#$05	;2	    *
   2947  18d7		       b0 05		      bcs	Lf8dd	;2/3 =  14 *
   2948  18d9				   Lf8d9
   2949  18d9		       b0 05		      bcs	Lf8de	;2/3	    *
   2950  18db		       f6 c8		      inc	enemy_x,x	;6   =   8 *
   2951  18dd				   Lf8dd
   2952  18dd		       60		      rts		;6   =   6 *
   2953  18de
   2954  18de				   Lf8de
   2955  18de		       d6 c8		      dec	enemy_x,x	;6	    *
   2956  18e0		       60		      rts		;6   =  12 *
   2957  18e1
   2958  18e1				   Lf8e1
   2959  18e1		       b5 ce		      lda	enemy_y,x	;4	    *
   2960  18e3		       c9 53		      cmp	#$53	;2	    *
   2961  18e5		       90 53		      bcc	Lf8f1	;2/3 =   8 *
   2962  18e7				   Lf8e7
   2963  18e7		       36 8c		      rol	ram_8C,x	;6	    *
   2964  18e9		       18		      clc		;2	    *
   2965  18ea		       76 8c		      ror	ram_8C,x	;6	    *
   2966  18ec		       a9 78		      lda	#$78	;2	    *
   2967  18ee		       95 ce		      sta	enemy_y,x	;4	    *
   2968  18f0		       60		      rts		;6   =  26 *
   2969  18f1
   2970  18f1				   Lf8f1
   2971  18f1		       b5 c8		      lda	enemy_x,x	;4	    *
   2972  18f3		       c9 10		      cmp	#$10	;2	    *
   2973  18f5		       90 f0		      bcc	Lf8e7	;2/3	    *
   2974  18f7		       c9 8e		      cmp	#$8e	;2	    *
   2975  18f9		       b0 ec		      bcs	Lf8e7	;2/3	    *
   2976  18fb		       60		      rts		;6   =  18 *
   2977  18fc
   2978  18fc		       00 00 00 00*	      .byte.b	$00,$00,$00,$00,$00,$e4,$7e,$9a	; $f8fc (*)
   2979  1904		       e4 a6 5a 7e*	      .byte.b	$e4,$a6,$5a,$7e,$e4,$7f,$00,$00	; $f904 (*)
   2980  190c		       84 08 2a 22*	      .byte.b	$84,$08,$2a,$22,$00,$22,$2a,$08	; $f90c (*)
   2981  1914		       00 b9 d4 89*	      .byte.b	$00,$b9,$d4,$89,$6c,$7b,$7f,$81	; $f914 (*)
   2982  191c		       a6 3f 77 07*	      .byte.b	$a6,$3f,$77,$07,$7f,$86,$89,$3f	; $f91c (*)
   2983  1924		       1f 0e 0c 00*	      .byte.b	$1f,$0e,$0c,$00,$c1,$b6,$00,$00	; $f924 (*)
   2984  192c		       00 81 1c 2a*	      .byte.b	$00,$81,$1c,$2a,$55,$2a,$14,$3e	; $f92c (*)
   2985  1934		       00 a9 00 e4*	      .byte.b	$00,$a9,$00,$e4,$89,$81,$7e,$9a	; $f934 (*)
   2986  193c		       e4 a6 5a 7e*	      .byte.b	$e4,$a6,$5a,$7e,$e4,$7f,$00,$c9	; $f93c (*)
   2987  1944		       89 82 00 7c*	      .byte.b	$89,$82,$00,$7c,$18,$18,$92,$7f	; $f944 (*)
   2988  194c		       1f 07 00 00*	      .byte.b	$1f,$07,$00,$00,$00	; $f94c (*)
   2989  1951
   2990  1951
   2991  1951							;Map Room
   2992  1951		       94		      .byte.b	$94	; |#  # #  |
   2993  1952		       00		      .byte.b	$00	; |	    |
   2994  1953		       08		      .byte.b	$08	; |	#   |
   2995  1954		       1c		      .byte.b	$1C	; |   ###  |
   2996  1955		       3e		      .byte.b	$3E	; |  ##### |
   2997  1956		       3e		      .byte.b	$3E	; |  ##### |
   2998  1957		       3e		      .byte.b	$3E	; |  ##### |
   2999  1958		       3e		      .byte.b	$3E	; |  ##### |
   3000  1959		       1c		      .byte.b	$1C	; |   ###  |
   3001  195a		       08		      .byte.b	$08	; |	#   |
   3002  195b		       00		      .byte.b	$00	; |	    |
   3003  195c		       8e		      .byte.b	$8E	; |#	### |
   3004  195d		       7f		      .byte.b	$7F	; | #######|
   3005  195e		       7f		      .byte.b	$7F	; | #######|
   3006  195f		       7f		      .byte.b	$7F	; | #######|
   3007  1960		       14		      .byte.b	$14	; |   # #  |
   3008  1961		       14		      .byte.b	$14	; |   # #  |
   3009  1962		       00		      .byte.b	$00	; |	    |
   3010  1963		       00		      .byte.b	$00	; |	    |
   3011  1964		       2a		      .byte.b	$2A	; |  # # # |
   3012  1965		       2a		      .byte.b	$2A	; |  # # # |
   3013  1966		       00		      .byte.b	$00	; |	    |
   3014  1967		       00		      .byte.b	$00	; |	    |
   3015  1968		       14		      .byte.b	$14	; |   # #  |
   3016  1969		       36		      .byte.b	$36	; |  ## ## |
   3017  196a		       22		      .byte.b	$22	; |  #   # |
   3018  196b		       08		      .byte.b	$08	; |	#   |
   3019  196c		       08		      .byte.b	$08	; |	#   |
   3020  196d		       3e		      .byte.b	$3E	; |  ##### |
   3021  196e		       1c		      .byte.b	$1C	; |   ###  |
   3022  196f		       08		      .byte.b	$08	; |	#   |
   3023  1970		       00		      .byte.b	$00	; |	    |
   3024  1971		       41		      .byte.b	$41	; | #	   #|
   3025  1972		       63		      .byte.b	$63	; | ##   ##|
   3026  1973		       49		      .byte.b	$49	; | #	#  #|
   3027  1974		       08		      .byte.b	$08	; |	#   |
   3028  1975		       00		      .byte.b	$00	; |	    |
   3029  1976		       00		      .byte.b	$00	; |	    |
   3030  1977		       14		      .byte.b	$14	; |   # #  |
   3031  1978		       14		      .byte.b	$14	; |   # #  |
   3032  1979		       00		      .byte.b	$00	; |	    |
   3033  197a		       00		      .byte.b	$00	; |	    |
   3034  197b		       08		      .byte.b	$08	; |	#   |
   3035  197c		       6b		      .byte.b	$6B	; | ## # ##|
   3036  197d		       6b		      .byte.b	$6B	; | ## # ##|
   3037  197e		       08		      .byte.b	$08	; |	#   |
   3038  197f		       00		      .byte.b	$00	; |	    |
   3039  1980		       22		      .byte.b	$22	; |  #   # |
   3040  1981		       22		      .byte.b	$22	; |  #   # |
   3041  1982		       00		      .byte.b	$00	; |	    |
   3042  1983		       00		      .byte.b	$00	; |	    |
   3043  1984		       08		      .byte.b	$08	; |	#   |
   3044  1985		       1c		      .byte.b	$1C	; |   ###  |
   3045  1986		       1c		      .byte.b	$1C	; |   ###  |
   3046  1987		       7f		      .byte.b	$7F	; | #######|
   3047  1988		       7f		      .byte.b	$7F	; | #######|
   3048  1989		       7f		      .byte.b	$7F	; | #######|
   3049  198a		       e4		      .byte.b	$E4	; |###  #  |
   3050  198b		       41		      .byte.b	$41	; | #	   #|
   3051  198c		       41		      .byte.b	$41	; | #	   #|
   3052  198d		       41		      .byte.b	$41	; | #	   #|
   3053  198e		       41		      .byte.b	$41	; | #	   #|
   3054  198f		       41		      .byte.b	$41	; | #	   #|
   3055  1990		       41		      .byte.b	$41	; | #	   #|
   3056  1991		       41		      .byte.b	$41	; | #	   #|
   3057  1992		       41		      .byte.b	$41	; | #	   #|
   3058  1993		       41		      .byte.b	$41	; | #	   #|
   3059  1994		       41		      .byte.b	$41	; | #	   #|
   3060  1995		       7f		      .byte.b	$7F	; | #######|
   3061  1996		       92		      .byte.b	$92	; |#  #  # |
   3062  1997		       77		      .byte.b	$77	; | ### ###|
   3063  1998		       77		      .byte.b	$77	; | ### ###|
   3064  1999		       63		      .byte.b	$63	; | ##   ##|
   3065  199a		       77		      .byte.b	$77	; | ### ###|
   3066  199b		       14		      .byte.b	$14	; |   # #  |
   3067  199c		       36		      .byte.b	$36	; |  ## ## |
   3068  199d		       55		      .byte.b	$55	; | # # # #|
   3069  199e		       63		      .byte.b	$63	; | ##   ##|
   3070  199f		       77		      .byte.b	$77	; | ### ###|
   3071  19a0		       7f		      .byte.b	$7F	; | #######|
   3072  19a1		       7f		      .byte.b	$7F	; | #######|
   3073  19a2		       00		      .byte.b	$00	; |	    |
   3074  19a3		       86		      .byte.b	$86	; |#	 ## |
   3075  19a4		       24		      .byte.b	$24	; |  #  #  |
   3076  19a5		       18		      .byte.b	$18	; |   ##   |
   3077  19a6		       24		      .byte.b	$24	; |  #  #  |
   3078  19a7		       24		      .byte.b	$24	; |  #  #  |
   3079  19a8		       7e		      .byte.b	$7E	; | ###### |
   3080  19a9		       5a		      .byte.b	$5A	; | # ## # |
   3081  19aa		       5b		      .byte.b	$5B	; | # ## ##|
   3082  19ab		       3c		      .byte.b	$3C	; |  ####  |
   3083  19ac
   3084  19ac
   3085  19ac							;	.byte	 $94,$00,$08 ; $f94c (*)
   3086  19ac							;    .byte   $1c,$3e,$3e,$3e,$3e,$1c,$08,$00 ; $f954 (*)
   3087  19ac							;    .byte   $8e,$7f,$7f,$7f,$14,$14,$00,$00 ; $f95c (*)
   3088  19ac							;    .byte   $2a,$2a,$00,$00,$14,$36,$22,$08 ; $f964 (*)
   3089  19ac							;    .byte   $08,$3e,$1c,$08,$00,$41,$63,$49 ; $f96c (*)
   3090  19ac							;    .byte   $08,$00,$00,$14,$14,$00,$00,$08 ; $f974 (*)
   3091  19ac							;    .byte   $6b,$6b,$08,$00,$22,$22,$00,$00 ; $f97c (*)
   3092  19ac							;   .byte   $08,$1c,$1c,$7f,$7f,$7f,$e4,$41 ; $f984 (*)
   3093  19ac							;    .byte   $41,$41,$41,$41,$41,$41,$41,$41 ; $f98c (*)
   3094  19ac							;    .byte   $41,$7f,$92,$77,$77,$63,$77,$14 ; $f994 (*)
   3095  19ac							;    .byte   $36,$55,$63,$77,$7f,$7f,$00,$86 ; $f99c (*)
   3096  19ac							;    .byte   $24,$18,$24,$24,$7e,$5a,$5b,$3c ; $f9a4 (*)
   3097  19ac
   3098  19ac
   3099  19ac
   3100  19ac
   3101  19ac
   3102  19ac		       00 00 00 00*	      .byte.b	$00,$00,$00,$00,$00,$00,$00,$00	; $f9ac (*)
   3103  19b4		       00 00 00 00*	      .byte.b	$00,$00,$00,$00,$00,$00,$00,$00	; $f9b4 (*)
   3104  19bc		       00 00 00 00*	      .byte.b	$00,$00,$00,$00,$00,$00,$00,$00	; $f9bc (*)
   3105  19c4		       00 b9 e4 81*	      .byte.b	$00,$b9,$e4,$81,$89,$55,$f9,$89	; $f9c4 (*)
   3106  19cc		       f9 81 fa 32*	      .byte.b	$f9,$81,$fa,$32,$1c,$89,$3e,$91	; $f9cc (*)
   3107  19d4		       7f 7f 7f 7f*	      .byte.b	$7f,$7f,$7f,$7f,$89,$1f,$07,$01	; $f9d4 (*)
   3108  19dc		       00 e9 fe 89*	      .byte.b	$00,$e9,$fe,$89,$3f,$7f,$f9,$91	; $f9dc (*)
   3109  19e4		       f9 89 3f f9*	      .byte.b	$f9,$89,$3f,$f9,$7f,$3f,$7f,$7f	; $f9e4 (*)
   3110  19ec		       00 00		      .byte.b	$00,$00	; $f9ec (*)
   3111  19ee				   Lf9ee
   3112  19ee		       00 00 00 00*	      .byte.b	$00,$00,$00,$00,$00,$00,$02,$02	; $f9ee (*)
   3113  19f6		       02 02 02 04*	      .byte.b	$02,$02,$02,$04,$04	; $f9f6 (*)
   3114  19fb		       06		      .byte.b	$06	; $f9fb (D)
   3115  19fc
   3116  19fc				   Lf9fc
   3117  19fc		       1c		      .byte.b	$1c	; |   ###  |		 $f9fc (G)
   3118  19fd		       36		      .byte.b	$36	; |  ## ## |		 $f9fd (G)
   3119  19fe		       63		      .byte.b	$63	; | ##   ##|		 $f9fe (G)
   3120  19ff		       36		      .byte.b	$36	; |  ## ## |		 $f9ff (G)
   3121  1a00
   3122  1a00		       18		      .byte.b	$18	; |   XX   |		 $fa00 (G)
   3123  1a01		       3c		      .byte.b	$3C	; |  XXXX  |		 $fa01 (G)
   3124  1a02		       00		      .byte.b	$00	; |	    |		 $fa02 (G)
   3125  1a03		       18		      .byte.b	$18	; |   XX   |		 $fa03 (G)
   3126  1a04		       1c		      .byte.b	$1C	; |   XXX  |		 $fa04 (G)
   3127  1a05		       18		      .byte.b	$18	; |   XX   |		 $fa05 (G)
   3128  1a06		       18		      .byte.b	$18	; |   XX   |		 $fa06 (G)
   3129  1a07		       0c		      .byte.b	$0C	; |	XX  |		 $fa07 (G)
   3130  1a08		       62		      .byte.b	$62	; | XX   X |		 $fa08 (G)
   3131  1a09		       43		      .byte.b	$43	; | X	  XX|		 $fa09 (G)
   3132  1a0a		       00		      .byte.b	$00	; |	    |		 $fa0a (G)
   3133  1a0b
   3134  1a0b		       18		      .byte.b	$18	; |   XX   |		 $fa0b (G)
   3135  1a0c		       3c		      .byte.b	$3C	; |  XXXX  |		 $fa0c (G)
   3136  1a0d		       00		      .byte.b	$00	; |	    |		 $fa0d (G)
   3137  1a0e		       18		      .byte.b	$18	; |   XX   |		 $fa0e (G)
   3138  1a0f		       38		      .byte.b	$38	; |  XXX   |		 $fa0f (G)
   3139  1a10		       1c		      .byte.b	$1C	; |   XXX  |		 $fa10 (G)
   3140  1a11		       18		      .byte.b	$18	; |   XX   |		 $fa11 (G)
   3141  1a12		       14		      .byte.b	$14	; |   X X  |		 $fa12 (G)
   3142  1a13		       64		      .byte.b	$64	; | XX  X  |		 $fa13 (G)
   3143  1a14		       46		      .byte.b	$46	; | X	 XX |		 $fa14 (G)
   3144  1a15		       00		      .byte.b	$00	; |	    |		 $fa15 (G)
   3145  1a16
   3146  1a16		       18		      .byte.b	$18	; |   XX   |		 $fa16 (G)
   3147  1a17		       3c		      .byte.b	$3C	; |  XXXX  |		 $fa17 (G)
   3148  1a18		       00		      .byte.b	$00	; |	    |		 $fa18 (G)
   3149  1a19		       38		      .byte.b	$38	; |  XXX   |		 $fa19 (G)
   3150  1a1a		       38		      .byte.b	$38	; |  XXX   |		 $fa1a (G)
   3151  1a1b		       18		      .byte.b	$18	; |   XX   |		 $fa1b (G)
   3152  1a1c		       18		      .byte.b	$18	; |   XX   |		 $fa1c (G)
   3153  1a1d		       28		      .byte.b	$28	; |  X X   |		 $fa1d (G)
   3154  1a1e		       48		      .byte.b	$48	; | X	X   |		 $fa1e (G)
   3155  1a1f		       8c		      .byte.b	$8C	; |X	XX  |		 $fa1f (G)
   3156  1a20		       00		      .byte.b	$00	; |	    |		 $fa20 (G)
   3157  1a21
   3158  1a21		       18		      .byte.b	$18	; |   XX   |		 $fa21 (G)
   3159  1a22		       3c		      .byte.b	$3C	; |  XXXX  |		 $fa22 (G)
   3160  1a23		       00		      .byte.b	$00	; |	    |		 $fa23 (G)
   3161  1a24		       38		      .byte.b	$38	; |  XXX   |		 $fa24 (G)
   3162  1a25		       58		      .byte.b	$58	; | X XX   |		 $fa25 (G)
   3163  1a26		       38		      .byte.b	$38	; |  XXX   |		 $fa26 (G)
   3164  1a27		       10		      .byte.b	$10	; |   X    |		 $fa27 (G)
   3165  1a28		       e8		      .byte.b	$E8	; |XXX X   |		 $fa28 (G)
   3166  1a29		       88		      .byte.b	$88	; |X	X   |		 $fa29 (G)
   3167  1a2a		       0c		      .byte.b	$0C	; |	XX  |		 $fa2a (G)
   3168  1a2b		       00		      .byte.b	$00	; |	    |		 $fa2b (G)
   3169  1a2c
   3170  1a2c		       18		      .byte.b	$18	; |   XX   |		 $fa2c (G)
   3171  1a2d		       3c		      .byte.b	$3C	; |  XXXX  |		 $fa2d (G)
   3172  1a2e		       00		      .byte.b	$00	; |	    |		 $fa2e (G)
   3173  1a2f		       30		      .byte.b	$30	; |  XX    |		 $fa2f (G)
   3174  1a30		       78		      .byte.b	$78	; | XXXX   |		 $fa30 (G)
   3175  1a31		       34		      .byte.b	$34	; |  XX X  |		 $fa31 (G)
   3176  1a32		       18		      .byte.b	$18	; |   XX   |		 $fa32 (G)
   3177  1a33		       60		      .byte.b	$60	; | XX     |		 $fa33 (G)
   3178  1a34		       50		      .byte.b	$50	; | X X    |		 $fa34 (G)
   3179  1a35		       18		      .byte.b	$18	; |   XX   |		 $fa35 (G)
   3180  1a36		       00		      .byte.b	$00	; |	    |		 $fa36 (G)
   3181  1a37
   3182  1a37		       18		      .byte.b	$18	; |   XX   |		 $fa37 (G)
   3183  1a38		       3c		      .byte.b	$3C	; |  XXXX  |		 $fa38 (G)
   3184  1a39		       00		      .byte.b	$00	; |	    |		 $fa39 (G)
   3185  1a3a		       30		      .byte.b	$30	; |  XX    |		 $fa3a (G)
   3186  1a3b		       38		      .byte.b	$38	; |  XXX   |		 $fa3b (G)
   3187  1a3c		       3c		      .byte.b	$3C	; |  XXXX  |		 $fa3c (G)
   3188  1a3d		       18		      .byte.b	$18	; |   XX   |		 $fa3d (G)
   3189  1a3e		       38		      .byte.b	$38	; |  XXX   |		 $fa3e (G)
   3190  1a3f		       20		      .byte.b	$20	; |  X     |		 $fa3f (G)
   3191  1a40		       30		      .byte.b	$30	; |  XX    |		 $fa40 (G)
   3192  1a41		       00		      .byte.b	$00	; |	    |		 $fa41 (G)
   3193  1a42
   3194  1a42		       18		      .byte.b	$18	; |   XX   |		 $fa42 (G)
   3195  1a43		       3c		      .byte.b	$3C	; |  XXXX  |		 $fa43 (G)
   3196  1a44		       00		      .byte.b	$00	; |	    |		 $fa44 (G)
   3197  1a45		       18		      .byte.b	$18	; |   XX   |		 $fa45 (G)
   3198  1a46		       38		      .byte.b	$38	; |  XXX   |		 $fa46 (G)
   3199  1a47		       1c		      .byte.b	$1C	; |   XXX  |		 $fa47 (G)
   3200  1a48		       18		      .byte.b	$18	; |   XX   |		 $fa48 (G)
   3201  1a49		       2c		      .byte.b	$2C	; |  X XX  |		 $fa49 (G)
   3202  1a4a		       20		      .byte.b	$20	; |  X     |		 $fa4a (G)
   3203  1a4b		       30		      .byte.b	$30	; |  XX    |		 $fa4b (G)
   3204  1a4c		       00		      .byte.b	$00	; |	    |		 $fa4c (G)
   3205  1a4d
   3206  1a4d		       18		      .byte.b	$18	; |   XX   |		 $fa4d (G)
   3207  1a4e		       3c		      .byte.b	$3C	; |  XXXX  |		 $fa4e (G)
   3208  1a4f		       00		      .byte.b	$00	; |	    |		 $fa4f (G)
   3209  1a50		       18		      .byte.b	$18	; |   XX   |		 $fa50 (G)
   3210  1a51		       18		      .byte.b	$18	; |   XX   |		 $fa51 (G)
   3211  1a52		       18		      .byte.b	$18	; |   XX   |		 $fa52 (G)
   3212  1a53		       08		      .byte.b	$08	; |	X   |		 $fa53 (G)
   3213  1a54		       16		      .byte.b	$16	; |   X XX |		 $fa54 (G)
   3214  1a55		       30		      .byte.b	$30	; |  XX    |		 $fa55 (G)
   3215  1a56		       20		      .byte.b	$20	; |  X     |		 $fa56 (G)
   3216  1a57		       00		      .byte.b	$00	; |	    |		 $fa57 (G)
   3217  1a58
   3218  1a58				   indy_sprite
   3219  1a58		       18		      .byte.b	$18	; |   ##   |		 $fa58 (G)
   3220  1a59		       3c		      .byte.b	$3c	; |  ####  |		 $fa59 (G)
   3221  1a5a		       00		      .byte.b	$00	; |	    |		 $fa5a (G)
   3222  1a5b		       18		      .byte.b	$18	; |   ##   |		 $fa5b (G)
   3223  1a5c		       3c		      .byte.b	$3c	; |  ####  |		 $fa5c (G)
   3224  1a5d		       5a		      .byte.b	$5a	; | # ## # |		 $fa5d (G)
   3225  1a5e		       3c		      .byte.b	$3c	; |  ####  |		 $fa5e (G)
   3226  1a5f		       18		      .byte.b	$18	; |   ##   |		 $fa5f (G)
   3227  1a60		       18		      .byte.b	$18	; |   ##   |		 $fa60 (G)
   3228  1a61		       3c		      .byte.b	$3c	; |  ####  |		 $fa61 (G)
   3229  1a62		       00		      .byte.b	$00	; |	    |		 $fa62 (G)
   3230  1a63
   3231  1a63		       3c		      .byte.b	$3C	; |  ####  |		 $fa63 (G)
   3232  1a64		       7e		      .byte.b	$7E	; | ###### |		 $fa64 (G)
   3233  1a65		       ff		      .byte.b	$FF	; |########|		 $fa65 (G)
   3234  1a66		       a5		      .byte.b	$A5	; |# #  # #|		 $fa66 (G)
   3235  1a67		       42		      .byte.b	$42	; | #	  # |		 $fa67 (G)
   3236  1a68		       42		      .byte.b	$42	; | #	  # |		 $fa68 (G)
   3237  1a69		       18		      .byte.b	$18	; |   ##   |		 $fa69 (G)
   3238  1a6a		       3c		      .byte.b	$3C	; |  ####  |		 $fa6a (G)
   3239  1a6b		       81		      .byte.b	$81	; |#	   #|		 $fa6b (G)
   3240  1a6c		       5a		      .byte.b	$5A	; | # ## # |		 $fa6c (G)
   3241  1a6d		       3c		      .byte.b	$3C	; |  ####  |		 $fa6d (G)
   3242  1a6e		       3c		      .byte.b	$3C	; |  ####  |		 $fa6e (G)
   3243  1a6f		       38		      .byte.b	$38	; |  ###   |		 $fa6f (G)
   3244  1a70		       18		      .byte.b	$18	; |   ##   |		 $fa70 (G)
   3245  1a71		       00		      .byte.b	$00	; |	    |		 $fa71 (G)
   3246  1a72
   3247  1a72
   3248  1a72
   3249  1a72		       10 10 00 f0*	      .byte.b	$10,$10,$00,$f0,$f0,$00,$10,$00	; $fa72 (*)
   3250  1a7a		       10 10 00 f0*	      .byte.b	$10,$10,$00,$f0,$00,$10,$10,$00	; $fa7a (*)
   3251  1a82		       10 00 f0 f0*	      .byte.b	$10,$00,$f0,$f0,$00,$f0,$f0,$00	; $fa82 (*)
   3252  1a8a		       f0 f0 00 10*	      .byte.b	$f0,$f0,$00,$10,$10,$00,$f0	; $fa8a (*)
   3253  1a91				   Lfa91
   3254  1a91		       00 00 e0 00*	      .byte.b	$00,$00,$e0,$00,$00,$c0,$ff,$ff	; $fa91 (*)
   3255  1a99		       00 ff ff f0*	      .byte.b	$00,$ff,$ff,$f0,$f0	; $fa99 (*)
   3256  1a9e
   3257  1a9e				   Lfa9e
   3258  1a9e		       00		      .byte.b	$00	; |	    |		 $fa9e (P)
   3259  1a9f
   3260  1a9f		       e0 00 e0 80*	      .byte.b	$e0,$00,$e0,$80,$00,$ff,$ff,$00	; $fa9f (*)
   3261  1aa7		       ff ff c0 00	      .byte.b	$ff,$ff,$c0,$00	; $faa7 (*)
   3262  1aab
   3263  1aab		       00		      .byte.b	$00	; |	    |		 $faab (P)
   3264  1aac
   3265  1aac				   Lfaac
   3266  1aac		       c0 f0 f0 f0*	      .byte.b	$c0,$f0,$f0,$f0,$f0,$f0,$c0,$c0	; $faac (*)
   3267  1ab4		       c0 f0 f0 f0*	      .byte.b	$c0,$f0,$f0,$f0,$f0	; $fab4 (*)
   3268  1ab9
   3269  1ab9		       c0		      .byte.b	$c0	; |**	    |		 $fab9 (P)
   3270  1aba
   3271  1aba		       f7 f7 f7 f7*	      .byte.b	$f7,$f7,$f7,$f7,$f7,$37,$37,$00	; $faba (*)
   3272  1ac2		       63 62 6b 5b*	      .byte.b	$63,$62,$6b,$5b,$6a,$5f,$5a,$5a	; $fac2 (*)
   3273  1aca		       6b 5e 67 5a*	      .byte.b	$6b,$5e,$67,$5a,$62,$6b,$5a,$6b	; $faca (*)
   3274  1ad2		       22 13 13 18*	      .byte.b	$22,$13,$13,$18,$18,$1e,$21,$13	; $fad2 (*)
   3275  1ada		       21 26 26 2b*	      .byte.b	$21,$26,$26,$2b,$2a,$2b,$31,$31	; $fada (*)
   3276  1ae2				   Lfae2
   3277  1ae2		       b4		      .byte.b	$b4	; $fae2 (*)
   3278  1ae3				   Lfae3
   3279  1ae3		       f0 02 f0 3f*	      .byte.b	$f0,$02,$f0,$3f,$f1	; $fae3 (*)
   3280  1ae8		       a5 f4		      .byte.b	$a5,$f4	; $fae8 (D)
   3281  1aea		       ae c0 b7 c9	      .byte.b	$ae,$c0,$b7,$c9	; $faea (*)
   3282  1aee				   Lfaee
   3283  1aee		       1b 18 17 17*	      .byte.b	$1b,$18,$17,$17,$18,$18,$1b,$1b	; $faee (*)
   3284  1af6		       1d 18 17 12*	      .byte.b	$1d,$18,$17,$12,$18,$17,$1b,$1d	; $faf6 (*)
   3285  1afe		       00 00		      .byte.b	$00,$00	; $fafe (*)
   3286  1b00
   3287  1b00		       00		      .byte.b	$00	; |	    |		 $fb00 (G)
   3288  1b01		       00		      .byte.b	$00	; |	    |		 $fb01 (G)
   3289  1b02		       00		      .byte.b	$00	; |	    |		 $fb02 (G)
   3290  1b03		       00		      .byte.b	$00	; |	    |		 $fb03 (G)
   3291  1b04		       00		      .byte.b	$00	; |	    |		 $fb04 (G)
   3292  1b05		       00		      .byte.b	$00	; |	    |		 $fb05 (G)
   3293  1b06		       00		      .byte.b	$00	; |	    |		 $fb06 (G)
   3294  1b07		       00		      .byte.b	$00	; |	    |		 $fb07 (G)
   3295  1b08
   3296  1b08		       71		      .byte.b	$71	; | ###   #|		 $fb08 (G)
   3297  1b09		       41		      .byte.b	$41	; | #	   #|		 $fb09 (G)
   3298  1b0a		       41		      .byte.b	$41	; | #	   #|		 $fb0a (G)
   3299  1b0b		       71		      .byte.b	$71	; | ###   #|		 $fb0b (G)
   3300  1b0c		       11		      .byte.b	$11	; |   #   #|		 $fb0c (G)
   3301  1b0d		       51		      .byte.b	$51	; | # #   #|		 $fb0d (G)
   3302  1b0e		       70		      .byte.b	$70	; | ###    |		 $fb0e (G)
   3303  1b0f		       00		      .byte.b	$00	; |	    |		 $fb0f (G)
   3304  1b10
   3305  1b10		       00		      .byte.b	$00	; |	    |		 $fb10 (G)
   3306  1b11		       01		      .byte.b	$01	; |	   #|		 $fb11 (G)
   3307  1b12		       3f		      .byte.b	$3F	; |  ######|		 $fb12(G)
   3308  1b13		       6b		      .byte.b	$6B	; | ## # ##|		 $fb12 (G)
   3309  1b14		       7f		      .byte.b	$7F	; | #######|		 $fb13 (G)
   3310  1b15		       01		      .byte.b	$01	; |	   #|		 $fb14 (G)
   3311  1b16		       00		      .byte.b	$00	; |	    |		 $fb15 (G)
   3312  1b17		       00		      .byte.b	$00	; |	    |		 $fb16 (G)
   3313  1b18
   3314  1b18		       77		      .byte.b	$77	; | ### ###|		 $fb17 (G)
   3315  1b19		       77		      .byte.b	$77	; | ### ###|		 $fb18 (G)
   3316  1b1a		       77		      .byte.b	$77	; | ### ###|		 $fb19 (G)
   3317  1b1b		       00		      .byte.b	$00	; |	    |		 $fb1a (G)
   3318  1b1c		       00		      .byte.b	$00	; |	    |		 $fb1b (G)
   3319  1b1d		       77		      .byte.b	$77	; | ### ###|		 $fb1c (G)
   3320  1b1e		       77		      .byte.b	$77	; | ### ###|		 $fb1d (G)
   3321  1b1f		       77		      .byte.b	$77	; | ### ###|		 $fb1e (G)
   3322  1b20
   3323  1b20		       1c		      .byte.b	$1C	; |   ###  |		 $fb1f (G)
   3324  1b21		       2a		      .byte.b	$2A	; |  # # # |		 $fb20 (G)
   3325  1b22		       55		      .byte.b	$55	; | # # # #|		 $fb21 (G)
   3326  1b23		       2a		      .byte.b	$2A	; |  # # # |		 $fb22 (G)
   3327  1b24		       55		      .byte.b	$55	; | # # # #|		 $fb23 (G)
   3328  1b25		       2a		      .byte.b	$2A	; |  # # # |		 $fb24 (G)
   3329  1b26		       1c		      .byte.b	$1C	; |   ###  |		 $fb25 (G)
   3330  1b27		       3e		      .byte.b	$3E	; |  ##### |		 $fb26 (G)
   3331  1b28
   3332  1b28		       3a		      .byte.b	$3A	; |  ### # |		 $fb27 (G)
   3333  1b29		       01		      .byte.b	$01	; |	   #|		 $fb28 (G)
   3334  1b2a		       7d		      .byte.b	$7D	; | ##### #|		 $fb29 (G)
   3335  1b2b		       01		      .byte.b	$01	; |	   #|		 $fb2a (G)
   3336  1b2c		       39		      .byte.b	$39	; |  ###  #|		 $fb2b (G)
   3337  1b2d		       02		      .byte.b	$02	; |	  # |		 $fb2c (G)
   3338  1b2e		       3c		      .byte.b	$3C	; |  ####  |		 $fb2d (G)
   3339  1b2f		       30		      .byte.b	$30	; |  ##    |		 $fb2e (G)
   3340  1b30
   3341  1b30		       2e		      .byte.b	$2E	; |  # ### |		 $fb2f (G)
   3342  1b31		       40		      .byte.b	$40	; | #	    |		 $fb30 (G)
   3343  1b32		       5f		      .byte.b	$5F	; | # #####|		 $fb31 (G)
   3344  1b33		       40		      .byte.b	$40	; | #	    |		 $fb32 (G)
   3345  1b34		       4e		      .byte.b	$4E	; | #	### |		 $fb33 (G)
   3346  1b35		       20		      .byte.b	$20	; |  #     |		 $fb34 (G)
   3347  1b36		       1e		      .byte.b	$1E	; |   #### |		 $fb35 (G)
   3348  1b37		       06		      .byte.b	$06	; |	 ## |		 $fb36 (G)
   3349  1b38
   3350  1b38		       00		      .byte.b	$00	; |	    |		 $fb37 (G)
   3351  1b39		       25		      .byte.b	$25	; |  #  # #|		 $fb38 (G)
   3352  1b3a		       52		      .byte.b	$52	; | # #  # |		 $fb39 (G)
   3353  1b3b		       7f		      .byte.b	$7F	; | #######|		 $fb3a (G)
   3354  1b3c		       50		      .byte.b	$50	; | # #    |		 $fb3b (G)
   3355  1b3d		       20		      .byte.b	$20	; |  #     |		 $fb3c (G)
   3356  1b3e		       00		      .byte.b	$00	; |	    |		 $fb3d (G)
   3357  1b3f		       00		      .byte.b	$00	; |	    |		 $fb3e (G)
   3358  1b40
   3359  1b40				   Lfb40
   3360  1b40		       ff		      .byte.b	$ff	; |########|		 $fb40 (G)
   3361  1b41		       66		      .byte.b	$66	; | ##  ## |		 $fb41 (G)
   3362  1b42		       24		      .byte.b	$24	; |  #  #  |		 $fb42 (G)
   3363  1b43		       24		      .byte.b	$24	; |  #  #  |		 $fb43 (G)
   3364  1b44		       66		      .byte.b	$66	; | ##  ## |		 $fb44 (G)
   3365  1b45		       e7		      .byte.b	$e7	; |###  ###|		 $fb45 (G)
   3366  1b46		       c3		      .byte.b	$c3	; |##	  ##|		 $fb46 (G)
   3367  1b47
   3368  1b47		       e7		      .byte.b	$e7	; |###  ###|		 $fb47 (G)
   3369  1b48
   3370  1b48		       17		      .byte.b	$17	; |   # ###|		 $fb48 (G)
   3371  1b49		       15		      .byte.b	$15	; |   # # #|		 $fb49 (G)
   3372  1b4a		       15		      .byte.b	$15	; |   # # #|		 $fb4a (G)
   3373  1b4b		       77		      .byte.b	$77	; | ### ###|		 $fb4b (G)
   3374  1b4c		       55		      .byte.b	$55	; | # # # #|		 $fb4c (G)
   3375  1b4d		       55		      .byte.b	$55	; | # # # #|		 $fb4d (G)
   3376  1b4e		       77		      .byte.b	$77	; | ### ###|		 $fb4e (G)
   3377  1b4f		       00		      .byte.b	$00	; |	    |		 $fb4f (G)
   3378  1b50
   3379  1b50		       21		      .byte.b	$21	; |  #    #|		 $fb50 (G)
   3380  1b51		       11		      .byte.b	$11	; |   #   #|		 $fb51 (G)
   3381  1b52		       09		      .byte.b	$09	; |	#  #|		 $fb52 (G)
   3382  1b53		       11		      .byte.b	$11	; |   #   #|		 $fb53 (G)
   3383  1b54		       22		      .byte.b	$22	; |  #   # |		 $fb54 (G)
   3384  1b55		       44		      .byte.b	$44	; | #	 #  |		 $fb55 (G)
   3385  1b56		       28		      .byte.b	$28	; |  # #   |		 $fb56 (G)
   3386  1b57		       10		      .byte.b	$10	; |   #    |		 $fb57 (G)
   3387  1b58
   3388  1b58		       01		      .byte.b	$01	; |	   #|		 $fb58 (G)
   3389  1b59		       03		      .byte.b	$03	; |	  ##|		 $fb59 (G)
   3390  1b5a		       07		      .byte.b	$07	; |	 ###|		 $fb5a (G)
   3391  1b5b		       0f		      .byte.b	$0F	; |	####|		 $fb5b (G)
   3392  1b5c		       06		      .byte.b	$06	; |	 ## |		 $fb5c (G)
   3393  1b5d		       0c		      .byte.b	$0C	; |	##  |		 $fb5d (G)
   3394  1b5e		       18		      .byte.b	$18	; |   ##   |		 $fb5e (G)
   3395  1b5f		       3c		      .byte.b	$3C	; |  ####  |		 $fb5f (G)
   3396  1b60
   3397  1b60		       79		      .byte.b	$79	; | ####  #|		 $fb60 (G)
   3398  1b61		       85		      .byte.b	$85	; |#	 # #|		 $fb61 (G)
   3399  1b62		       b5		      .byte.b	$b5	; |# ## # #|		 $fb62 (G)
   3400  1b63		       a5		      .byte.b	$a5	; |# #  # #|		 $fb63 (G)
   3401  1b64		       b5		      .byte.b	$b5	; |# ## # #|		 $fb64 (G)
   3402  1b65		       85		      .byte.b	$85	; |#	 # #|		 $fb65 (G)
   3403  1b66		       79		      .byte.b	$79	; | ####  #|		 $fb66 (G)
   3404  1b67		       00		      .byte.b	$00	; |	    |		 $fb67 (G)
   3405  1b68
   3406  1b68		       00		      .byte.b	$00	; |	    |		 $fb68 (G)
   3407  1b69		       60		      .byte.b	$60	; | ##     |		 $fb69 (G)
   3408  1b6a		       60		      .byte.b	$60	; | ##     |		 $fb6a (G)
   3409  1b6b		       78		      .byte.b	$78	; | ####   |		 $fb6b (G)
   3410  1b6c		       68		      .byte.b	$68	; | ## #   |		 $fb6c (G)
   3411  1b6d		       3f		      .byte.b	$3F	; |  ######|		 $fb6d (G)
   3412  1b6e		       5f		      .byte.b	$5F	; | # #####|		 $fb6e (G)
   3413  1b6f		       00		      .byte.b	$00	; |	    |		 $fb6f (G)
   3414  1b70
   3415  1b70		       08		      .byte.b	$08	; |	#   |		 $fb70 (G)
   3416  1b71		       1c		      .byte.b	$1C	; |   ###  |		 $fb71 (G)
   3417  1b72		       22		      .byte.b	$22	; |  #   # |		 $fb72 (G)
   3418  1b73		       49		      .byte.b	$49	; | #	#  #|		 $fb73 (G)
   3419  1b74		       6b		      .byte.b	$6B	; | ## # ##|		 $fb74 (G)
   3420  1b75		       00		      .byte.b	$00	; |	    |		 $fb75 (G)
   3421  1b76		       1c		      .byte.b	$1C	; |   ###  |		 $fb76 (G)
   3422  1b77		       08		      .byte.b	$08	; |	#   |		 $fb77 (G)
   3423  1b78
   3424  1b78		       7f		      .byte.b	$7F	; | #######|		 $fb78 (G)
   3425  1b79		       5d		      .byte.b	$5D	; | # ### #|		 $fb79 (G)
   3426  1b7a		       77		      .byte.b	$77	; | ### ###|		 $fb7a (G)
   3427  1b7b		       77		      .byte.b	$77	; | ### ###|		 $fb7b (G)
   3428  1b7c		       5d		      .byte.b	$5D	; | # ### #|		 $fb7c (G)
   3429  1b7d		       7f		      .byte.b	$7F	; | #######|		 $fb7d (G)
   3430  1b7e		       08		      .byte.b	$08	; |	#   |		 $fb7e (G)
   3431  1b7f		       1c		      .byte.b	$1C	; |   ###  |		 $fb7f (G)
   3432  1b80
   3433  1b80		       3e		      .byte.b	$3E	; |  ##### |		 $fb80 (G)
   3434  1b81		       1c		      .byte.b	$1C	; |   ###  |		 $fb81 (G)
   3435  1b82		       49		      .byte.b	$49	; | #	#  #|		 $fb82 (G)
   3436  1b83		       7f		      .byte.b	$7F	; | #######|		 $fb83 (G)
   3437  1b84		       49		      .byte.b	$49	; | #	#  #|		 $fb84 (G)
   3438  1b85		       1c		      .byte.b	$1C	; |   ###  |		 $fb85 (G)
   3439  1b86		       36		      .byte.b	$36	; |  ## ## |		 $fb86 (G)
   3440  1b87		       1c		      .byte.b	$1C	; |   ###  |		 $fb87 (G)
   3441  1b88
   3442  1b88		       16		      .byte.b	$16	; |   # ## |		 $fb88 (G)
   3443  1b89		       0b		      .byte.b	$0B	; |	# ##|		 $fb89 (G)
   3444  1b8a		       0d		      .byte.b	$0D	; |	## #|		 $fb8a (G)
   3445  1b8b		       05		      .byte.b	$05	; |	 # #|		 $fb8b (G)
   3446  1b8c		       17		      .byte.b	$17	; |   # ###|		 $fb8c (G)
   3447  1b8d		       36		      .byte.b	$36	; |  ## ## |		 $fb8d (G)
   3448  1b8e		       64		      .byte.b	$64	; | ##  #  |		 $fb8e (G)
   3449  1b8f		       04		      .byte.b	$04	; |	 #  |		 $fb8f (G)
   3450  1b90
   3451  1b90		       77		      .byte.b	$77	; | ### ###|		 $fb90 (G)
   3452  1b91		       36		      .byte.b	$36	; |  ## ## |		 $fb91 (G)
   3453  1b92		       14		      .byte.b	$14	; |   # #  |		 $fb92 (G)
   3454  1b93		       22		      .byte.b	$22	; |  #   # |		 $fb93 (G)
   3455  1b94		       22		      .byte.b	$22	; |  #   # |		 $fb94 (G)
   3456  1b95		       14		      .byte.b	$14	; |   # #  |		 $fb95 (G)
   3457  1b96		       36		      .byte.b	$36	; |  ## ## |		 $fb96 (G)
   3458  1b97		       77		      .byte.b	$77	; | ### ###|		 $fb97 (G)
   3459  1b98
   3460  1b98		       3e		      .byte.b	$3E	; |  ##### |		 $fb98 (G)
   3461  1b99		       41		      .byte.b	$41	; | #	   #|		 $fb99 (G)
   3462  1b9a		       41		      .byte.b	$41	; | #	   #|		 $fb9a (G)
   3463  1b9b		       49		      .byte.b	$49	; | #	#  #|		 $fb9b (G)
   3464  1b9c		       49		      .byte.b	$49	; | #	#  #|		 $fb9c (G)
   3465  1b9d		       49		      .byte.b	$49	; | #	#  #|		 $fb9d (G)
   3466  1b9e		       3e		      .byte.b	$3E	; |  ##### |		 $fb9e (G)
   3467  1b9f		       1c		      .byte.b	$1C	; |   ###  |		 $fb9f (G)
   3468  1ba0
   3469  1ba0		       3e		      .byte.b	$3E	; |  ##### |		 $fba0 (G)
   3470  1ba1		       41		      .byte.b	$41	; | #	   #|		 $fba1 (G)
   3471  1ba2		       41		      .byte.b	$41	; | #	   #|		 $fba2 (G)
   3472  1ba3		       49		      .byte.b	$49	; | #	#  #|		 $fba3 (G)
   3473  1ba4		       45		      .byte.b	$45	; | #	 # #|		 $fba4 (G)
   3474  1ba5		       43		      .byte.b	$43	; | #	  ##|		 $fba5 (G)
   3475  1ba6		       3e		      .byte.b	$3E	; |  ##### |		 $fba6 (G)
   3476  1ba7		       1c		      .byte.b	$1C	; |   ###  |		 $fba7 (G)
   3477  1ba8
   3478  1ba8		       3e		      .byte.b	$3E	; |  ##### |		 $fba8 (G)
   3479  1ba9		       41		      .byte.b	$41	; | #	   #|		 $fba9 (G)
   3480  1baa		       41		      .byte.b	$41	; | #	   #|		 $fbaa (G)
   3481  1bab		       4f		      .byte.b	$4F	; | #	####|		 $fbab (G)
   3482  1bac		       41		      .byte.b	$41	; | #	   #|		 $fbac (G)
   3483  1bad		       41		      .byte.b	$41	; | #	   #|		 $fbad (G)
   3484  1bae		       3e		      .byte.b	$3E	; |  ##### |		 $fbae (G)
   3485  1baf		       1c		      .byte.b	$1C	; |   ###  |		 $fbaf (G)
   3486  1bb0
   3487  1bb0		       3e		      .byte.b	$3E	; |  ##### |		 $fbb0 (G)
   3488  1bb1		       43		      .byte.b	$43	; | #	  ##|		 $fbb1 (G)
   3489  1bb2		       45		      .byte.b	$45	; | #	 # #|		 $fbb2 (G)
   3490  1bb3		       49		      .byte.b	$49	; | #	#  #|		 $fbb3 (G)
   3491  1bb4		       41		      .byte.b	$41	; | #	   #|		 $fbb4 (G)
   3492  1bb5		       41		      .byte.b	$41	; | #	   #|		 $fbb5 (G)
   3493  1bb6		       3e		      .byte.b	$3E	; |  ##### |		 $fbb6 (G)
   3494  1bb7		       1c		      .byte.b	$1C	; |   ###  |		 $fbb7 (G)
   3495  1bb8
   3496  1bb8		       3e		      .byte.b	$3E	; |  ##### |		 $fbb8 (G)
   3497  1bb9		       49		      .byte.b	$49	; | #	#  #|		 $fbb9 (G)
   3498  1bba		       49		      .byte.b	$49	; | #	#  #|		 $fbba (G)
   3499  1bbb		       49		      .byte.b	$49	; | #	#  #|		 $fbbb (G)
   3500  1bbc		       41		      .byte.b	$41	; | #	   #|		 $fbbc (G)
   3501  1bbd		       41		      .byte.b	$41	; | #	   #|		 $fbbd (G)
   3502  1bbe		       3e		      .byte.b	$3E	; |  ##### |		 $fbbe (G)
   3503  1bbf		       1c		      .byte.b	$1C	; |   ###  |		 $fbbf (G)
   3504  1bc0
   3505  1bc0		       3e		      .byte.b	$3E	; |  ##### |		 $fbc0 (G)
   3506  1bc1		       61		      .byte.b	$61	; | ##    #|		 $fbc1 (G)
   3507  1bc2		       51		      .byte.b	$51	; | # #   #|		 $fbc2 (G)
   3508  1bc3		       49		      .byte.b	$49	; | #	#  #|		 $fbc3 (G)
   3509  1bc4		       41		      .byte.b	$41	; | #	   #|		 $fbc4 (G)
   3510  1bc5		       41		      .byte.b	$41	; | #	   #|		 $fbc5 (G)
   3511  1bc6		       3e		      .byte.b	$3E	; |  ##### |		 $fbc6 (G)
   3512  1bc7		       1c		      .byte.b	$1C	; |   ###  |		 $fbc7 (G)
   3513  1bc8
   3514  1bc8		       3e		      .byte.b	$3E	; |  ##### |		 $fbc8 (G)
   3515  1bc9		       41		      .byte.b	$41	; | #	   #|		 $fbc9 (G)
   3516  1bca		       41		      .byte.b	$41	; | #	   #|		 $fbca (G)
   3517  1bcb		       79		      .byte.b	$79	; | ####  #|		 $fbcb (G)
   3518  1bcc		       41		      .byte.b	$41	; | #	   #|		 $fbcc (G)
   3519  1bcd		       41		      .byte.b	$41	; | #	   #|		 $fbcd (G)
   3520  1bce		       3e		      .byte.b	$3E	; |  ##### |		 $fbce (G)
   3521  1bcf		       1c		      .byte.b	$1C	; |   ###  |		 $fbcf (G)
   3522  1bd0
   3523  1bd0		       3e		      .byte.b	$3E	; |  ##### |		 $fbd0 (G)
   3524  1bd1		       41		      .byte.b	$41	; | #	   #|		 $fbd1 (G)
   3525  1bd2		       41		      .byte.b	$41	; | #	   #|		 $fbd2 (G)
   3526  1bd3		       49		      .byte.b	$49	; | #	#  #|		 $fbd3 (G)
   3527  1bd4		       51		      .byte.b	$51	; | # #   #|		 $fbd4 (G)
   3528  1bd5		       61		      .byte.b	$61	; | ##    #|		 $fbd5 (G)
   3529  1bd6		       3e		      .byte.b	$3E	; |  ##### |		 $fbd6 (G)
   3530  1bd7		       1c		      .byte.b	$1C	; |   ###  |		 $fbd7 (G)
   3531  1bd8
   3532  1bd8		       49		      .byte.b	$49	; | #	#  #|		 $fbd8 (G)
   3533  1bd9		       49		      .byte.b	$49	; | #	#  #|		 $fbd9 (G)
   3534  1bda		       49		      .byte.b	$49	; | #	#  #|		 $fbda (G)
   3535  1bdb		       c9		      .byte.b	$C9	; |##	#  #|		 $fbdb (G)
   3536  1bdc		       49		      .byte.b	$49	; | #	#  #|		 $fbdc (G)
   3537  1bdd		       49		      .byte.b	$49	; | #	#  #|		 $fbdd (G)
   3538  1bde		       be		      .byte.b	$BE	; |# ##### |		 $fbde (G)
   3539  1bdf		       00		      .byte.b	$00	; |	    |		 $fbdf (G) 
   3540  1be0
   3541  1be0		       55		      .byte.b	$55	; | # # # #|		 $fbe0 (G)
   3542  1be1		       55		      .byte.b	$55	; | # # # #|		 $fbe1 (G)
   3543  1be2		       55		      .byte.b	$55	; | # # # #|		 $fbe2 (G)
   3544  1be3		       d9		      .byte.b	$d9	; |## ##  #|		 $fbe3 (G)
   3545  1be4		       55		      .byte.b	$55	; | # # # #|		 $fbe4 (G)
   3546  1be5		       55		      .byte.b	$55	; | # # # #|		 $fbe5 (G)
   3547  1be6		       99		      .byte.b	$99	; |#  ##  #|		 $fbe6 (G)
   3548  1be7		       00		      .byte.b	$00	; |	    |		 $fbe7 (G)
   3549  1be8
   3550  1be8				   Lfbe8
   3551  1be8		       14		      .byte.b	$14	; $fbe8 (D)
   3552  1be9		       14 14 0f 10*	      .byte.b	$14,$14,$0f,$10,$12,$0b,$0b,$0b	; $fbe9 (*)
   3553  1bf1		       10 12 14 17*	      .byte.b	$10,$12,$14,$17,$17,$17,$17	; $fbf1 (*)
   3554  1bf8		       18 1b 0f 0f*	      .byte.b	$18,$1b,$0f,$0f,$0f,$14,$17,$18	; $fbf8 (D)
   3555  1c00
   3556  1c00
   3557  1c00		       14		      .byte.b	$14	; |   # #  |		 $fc00 (G)
   3558  1c01		       3c		      .byte.b	$3C	; |  ####  |		 $fc01 (G)
   3559  1c02		       7e		      .byte.b	$7E	; | ###### |		 $fc02 (G)
   3560  1c03		       00		      .byte.b	$00	; |	    |		 $fc03 (G)
   3561  1c04		       30		      .byte.b	$30	; |  ##    |		 $fc04 (G)
   3562  1c05		       38		      .byte.b	$38	; |  ###   |		 $fc05 (G)
   3563  1c06		       3c		      .byte.b	$3C	; |  ####  |		 $fc06 (G)
   3564  1c07		       3e		      .byte.b	$3E	; |  ##### |		 $fc07 (G)
   3565  1c08		       3f		      .byte.b	$3F	; |  ######|		 $fc08 (G)
   3566  1c09		       7f		      .byte.b	$7F	; | #######|		 $fc09 (G)
   3567  1c0a		       7f		      .byte.b	$7F	; | #######|		 $fc0a (G)
   3568  1c0b		       7f		      .byte.b	$7F	; | #######|		 $fc0b (G)
   3569  1c0c		       11		      .byte.b	$11	; |   #   #|		 $fc0c (G)
   3570  1c0d		       11		      .byte.b	$11	; |   #   #|		 $fc0d (G)
   3571  1c0e		       33		      .byte.b	$33	; |  ##  ##|		 $fc0e (G)
   3572  1c0f		       00		      .byte.b	$00	; |	    |		 $fc0f (G)
   3573  1c10
   3574  1c10		       14		      .byte.b	$14	; |   # #  |		 $fc10 (G)
   3575  1c11		       3c		      .byte.b	$3C	; |  ####  |		 $fc11 (G)
   3576  1c12		       7e		      .byte.b	$7E	; | ###### |		 $fc12 (G)
   3577  1c13		       00		      .byte.b	$00	; |	    |		 $fc13 (G)
   3578  1c14		       30		      .byte.b	$30	; |  ##    |		 $fc14 (G)
   3579  1c15		       38		      .byte.b	$38	; |  ###   |		 $fc15 (G)
   3580  1c16		       3c		      .byte.b	$3C	; |  ####  |		 $fc16 (G)
   3581  1c17		       3e		      .byte.b	$3E	; |  ##### |		 $fc17 (G)
   3582  1c18		       3f		      .byte.b	$3F	; |  ######|		 $fc18 (G)
   3583  1c19		       7f		      .byte.b	$7F	; | #######|		 $fc19 (G)
   3584  1c1a		       7f		      .byte.b	$7F	; | #######|		 $fc1a (G)
   3585  1c1b		       7f		      .byte.b	$7F	; | #######|		 $fc1b (G)
   3586  1c1c		       22		      .byte.b	$22	; |  #   # |		 $fc1c (G)
   3587  1c1d		       22		      .byte.b	$22	; |  #   # |		 $fc1d (G)
   3588  1c1e		       66		      .byte.b	$66	; | ##  ## |		 $fc1e (G)
   3589  1c1f		       00		      .byte.b	$00	; |	    |		 $fc1f (G)
   3590  1c20
   3591  1c20		       14		      .byte.b	$14	; |   # #  |		 $fc20 (G)
   3592  1c21		       3c		      .byte.b	$3C	; |  ####  |		 $fc21 (G)
   3593  1c22		       7e		      .byte.b	$7E	; | ###### |		 $fc22 (G)
   3594  1c23		       00		      .byte.b	$00	; |	    |		 $fc23 (G)
   3595  1c24		       30		      .byte.b	$30	; |  ##    |		 $fc24 (G)
   3596  1c25		       38		      .byte.b	$38	; |  ###   |		 $fc25 (G)
   3597  1c26		       3c		      .byte.b	$3C	; |  ####  |		 $fc26 (G)
   3598  1c27		       3e		      .byte.b	$3E	; |  ##### |		 $fc27 (G)
   3599  1c28		       3f		      .byte.b	$3F	; |  ######|		 $fc28 (G)
   3600  1c29		       7f		      .byte.b	$7F	; | #######|		 $fc29 (G)
   3601  1c2a		       7f		      .byte.b	$7F	; | #######|		 $fc2a (G)
   3602  1c2b		       7f		      .byte.b	$7F	; | #######|		 $fc2b (G)
   3603  1c2c		       44		      .byte.b	$44	; | #	 #  |		 $fc2c (G)
   3604  1c2d		       44		      .byte.b	$44	; | #	 #  |		 $fc2d (G)
   3605  1c2e		       cc		      .byte.b	$CC	; |##	##  |		 $fc2e (G)
   3606  1c2f		       00		      .byte.b	$00	; |	    |		 $fc2f (G)
   3607  1c30
   3608  1c30		       14		      .byte.b	$14	; |   # #  |		 $fc30 (G)
   3609  1c31		       3c		      .byte.b	$3C	; |  ####  |		 $fc31 (G)
   3610  1c32		       7e		      .byte.b	$7E	; | ###### |		 $fc32 (G)
   3611  1c33		       00		      .byte.b	$00	; |	    |		 $fc33 (G)
   3612  1c34		       30		      .byte.b	$30	; |  ##    |		 $fc34 (G)
   3613  1c35		       38		      .byte.b	$38	; |  ###   |		 $fc35 (G)
   3614  1c36		       3c		      .byte.b	$3C	; |  ####  |		 $fc36 (G)
   3615  1c37		       3e		      .byte.b	$3E	; |  ##### |		 $fc37 (G)
   3616  1c38		       3f		      .byte.b	$3F	; |  ######|		 $fc38 (G)
   3617  1c39		       7f		      .byte.b	$7F	; | #######|		 $fc39 (G)
   3618  1c3a		       7f		      .byte.b	$7F	; | #######|		 $fc3a (G)
   3619  1c3b		       7f		      .byte.b	$7F	; | #######|		 $fc3b (G)
   3620  1c3c		       08		      .byte.b	$08	; |	#   |		 $fc3c (G)
   3621  1c3d		       08		      .byte.b	$08	; |	#   |		 $fc3d (G)
   3622  1c3e		       18		      .byte.b	$18	; |   ##   |		 $fc3e (G)
   3623  1c3f		       00		      .byte.b	$00	; |	    |		 $fc3f (G)
   3624  1c40
   3625  1c40
   3626  1c40
   3627  1c40				   Lfc40
   3628  1c40		       00 10 20 30*	      .byte.b	$00,$10,$20,$30,$7c,$0f,$7c,$00	; $fc40 (*)
   3629  1c48		       0a 02 04 06*	      .byte.b	$0a,$02,$04,$06,$08,$0a,$08,$06	; $fc48 (*)
   3630  1c50		       98 98 9e 9e*	      .byte.b	$98,$98,$9e,$9e,$00,$00,$00,$00	; $fc50 (*)
   3631  1c58		       00 00 00 00*	      .byte.b	$00,$00,$00,$00,$00,$00,$00,$08	; $fc58 (*)
   3632  1c60		       1c 3c 3e 7f*	      .byte.b	$1c,$3c,$3e,$7f,$ff,$ff,$ff,$ff	; $fc60 (*)
   3633  1c68		       ff ff ff ff*	      .byte.b	$ff,$ff,$ff,$ff,$3e,$3c,$3a,$38	; $fc68 (*)
   3634  1c70		       36 34 32 20*	      .byte.b	$36,$34,$32,$20,$10,$00,$00,$00	; $fc70 (*)
   3635  1c78		       00 08 00 02*	      .byte.b	$00,$08,$00,$02,$0a,$0c,$0e,$01	; $fc78 (*)
   3636  1c80		       03 04 06 05*	      .byte.b	$03,$04,$06,$05,$07,$0d,$0f,$0b	; $fc80 (*)
   3637  1c88				   Lfc88
   3638  1c88		       e0		      .byte.b	$e0	; $fc88 (*)
   3639  1c89				   Lfc89
   3640  1c89		       f6 32 f8 3d*	      .byte.b	$f6,$32,$f8,$3d,$f8,$ae,$f6,$27	; $fc89 (*)
   3641  1c91		       f7 62 f6 a7*	      .byte.b	$f7,$62,$f6,$a7,$f7,$3e,$f5,$df	; $fc91 (*)
   3642  1c99		       f7 34 f5 9c*	      .byte.b	$f7,$34,$f5,$9c,$f5,$37,$f6,$29	; $fc99 (*)
   3643  1ca1		       f6 1a 38 09*	      .byte.b	$f6,$1a,$38,$09,$26,$26,$46,$1a	; $fca1 (*)
   3644  1ca9		       38 04 11 10*	      .byte.b	$38,$04,$11,$10,$12	; $fca9 (*)
   3645  1cae
   3646  1cae
   3647  1cae		       54		      .byte.b	$54	; | # # #  |		 $fcae (G)
   3648  1caf		       fc		      .byte.b	$FC	; |######  |		 $fcaf (G)
   3649  1cb0		       5f		      .byte.b	$5F	; | # #####|		 $fcb0 (G)
   3650  1cb1		       fe		      .byte.b	$FE	; |####### |		 $fcb1 (G)
   3651  1cb2		       7f		      .byte.b	$7F	; | #######|		 $fcb2 (G)
   3652  1cb3		       fa		      .byte.b	$FA	; |##### # |		 $fcb3 (G)
   3653  1cb4		       3f		      .byte.b	$3F	; |  ######|		 $fcb4 (G)
   3654  1cb5		       2a		      .byte.b	$2A	; |  # # # |		 $fcb5 (G)
   3655  1cb6		       00		      .byte.b	$00	; |	    |		 $fcb6 (G)
   3656  1cb7		       54		      .byte.b	$54	; | # # #  |		 $fcb7 (G)
   3657  1cb8		       5f		      .byte.b	$5F	; | # #####|		 $fcb8 (G)
   3658  1cb9		       fc		      .byte.b	$FC	; |######  |		 $fcb9 (G)
   3659  1cba		       7f		      .byte.b	$7F	; | #######|		 $fcba (G)
   3660  1cbb		       fe		      .byte.b	$FE	; |####### |		 $fcbb (G)
   3661  1cbc		       3f		      .byte.b	$3F	; |  ######|		 $fcbc (G)
   3662  1cbd		       fa		      .byte.b	$FA	; |##### # |		 $fcbd (G)
   3663  1cbe		       2a		      .byte.b	$2A	; |  # # # |		 $fcbe (G)
   3664  1cbf		       00		      .byte.b	$00	; |	    |		 $fcbf (G)
   3665  1cc0		       2a		      .byte.b	$2A	; |  # # # |		 $fcc0 (G)
   3666  1cc1		       fa		      .byte.b	$FA	; |##### # |		 $fcc1 (G)
   3667  1cc2		       3f		      .byte.b	$3F	; |  ######|		 $fcc2 (G)
   3668  1cc3		       fe		      .byte.b	$FE	; |####### |		 $fcc3 (G)
   3669  1cc4		       7f		      .byte.b	$7F	; | #######|		 $fcc4 (G)
   3670  1cc5		       fa		      .byte.b	$FA	; |##### # |		 $fcc5 (G)
   3671  1cc6		       5f		      .byte.b	$5F	; | # #####|		 $fcc6 (G)
   3672  1cc7		       54		      .byte.b	$54	; | # # #  |		 $fcc7 (G)
   3673  1cc8		       00		      .byte.b	$00	; |	    |		 $fcc8 (G)
   3674  1cc9		       2a		      .byte.b	$2A	; |  # # # |		 $fcc9 (G)
   3675  1cca		       3f		      .byte.b	$3F	; |  ######|		 $fcca (G)
   3676  1ccb		       fa		      .byte.b	$FA	; |##### # |		 $fccb (G)
   3677  1ccc		       7f		      .byte.b	$7F	; | #######|		 $fccc (G)
   3678  1ccd		       fe		      .byte.b	$FE	; |####### |		 $fccd (G)
   3679  1cce		       5f		      .byte.b	$5F	; | # #####|		 $fcce (G)
   3680  1ccf		       fc		      .byte.b	$FC	; |######  |		 $fccf (G)
   3681  1cd0		       54		      .byte.b	$54	; | # # #  |		 $fcd0 (G)
   3682  1cd1
   3683  1cd1
   3684  1cd1		       00 8b 8a 86*	      .byte.b	$00,$8b,$8a,$86,$87,$85,$89,$03	; $fcd1 (*)
   3685  1cd9		       01 00 01 03*	      .byte.b	$01,$00,$01,$03,$02,$01,$03,$02	; $fcd9 (*)
   3686  1ce1		       03 01 02 04*	      .byte.b	$03,$01,$02,$04,$08,$10,$20,$40	; $fce1 (*)
   3687  1ce9		       80		      .byte.b	$80	; $fce9 (*)
   3688  1cea
   3689  1cea				   Lfcea
   3690  1cea		       6a		      ror		;2	    *
   3691  1ceb		       b0 01		      bcs	Lfcef	;2/3	    *
   3692  1ced		       d6 ce		      dec	enemy_y,x	;6   =  10 *
   3693  1cef				   Lfcef
   3694  1cef		       6a		      ror		;2	    *
   3695  1cf0		       b0 ce		      bcs	Lfcf4	;2/3	    *
   3696  1cf2		       f6 ce		      inc	enemy_y,x	;6   =  10 *
   3697  1cf4				   Lfcf4
   3698  1cf4		       6a		      ror		;2	    *
   3699  1cf5		       b0 ce		      bcs	Lfcf9	;2/3	    *
   3700  1cf7		       d6 c8		      dec	enemy_x,x	;6   =  10 *
   3701  1cf9				   Lfcf9
   3702  1cf9		       6a		      ror		;2	    *
   3703  1cfa		       b0 c8		      bcs	Lfcfe	;2/3	    *
   3704  1cfc		       f6 c8		      inc	enemy_x,x	;6   =  10 *
   3705  1cfe				   Lfcfe
   3706  1cfe		       60		      rts		;6   =   6 *
   3707  1cff
   3708  1cff		       00 f2 40 f2*	      .byte.b	$00,$f2,$40,$f2,$c0,$12,$10,$f2	; $fcff (*)
   3709  1d07		       00 12 20 02*	      .byte.b	$00,$12,$20,$02,$b0,$f2,$30,$12	; $fd07 (*)
   3710  1d0f		       00 f2 40 f2*	      .byte.b	$00,$f2,$40,$f2,$d0,$12,$10,$02	; $fd0f (*)
   3711  1d17		       00 02 30 12*	      .byte.b	$00,$02,$30,$12,$b0,$02,$20,$12	; $fd17 (*)
   3712  1d1f		       00 ff ff fc*	      .byte.b	$00,$ff,$ff,$fc,$f0,$e0,$e0,$c0	; $fd1f (*)
   3713  1d27		       80 00 00 00*	      .byte.b	$80,$00,$00,$00,$00,$00,$00,$00	; $fd27 (*)
   3714  1d2f		       00 00 00 00*	      .byte.b	$00,$00,$00,$00,$00,$00,$00,$00	; $fd2f (*)
   3715  1d37		       00 00 00 00*	      .byte.b	$00,$00,$00,$00,$00,$00,$00,$00	; $fd37 (*)
   3716  1d3f		       00 00 80 80*	      .byte.b	$00,$00,$80,$80,$c0,$e0,$e0,$f0	; $fd3f (*)
   3717  1d47		       fe ff ff ff*	      .byte.b	$fe,$ff,$ff,$ff,$ff,$fc,$f0,$e0	; $fd47 (*)
   3718  1d4f		       e0 c0 80 00*	      .byte.b	$e0,$c0,$80,$00,$00,$00,$00,$00	; $fd4f (*)
   3719  1d57		       00 00 00 00*	      .byte.b	$00,$00,$00,$00,$00,$00,$c0,$f0	; $fd57 (*)
   3720  1d5f		       f8 fe fe f8*	      .byte.b	$f8,$fe,$fe,$f8,$f0,$e0,$c0,$80	; $fd5f (*)
   3721  1d67		       00 00 00 00*	      .byte.b	$00,$00,$00,$00,$00,$00,$00,$00	; $fd67 (*)
   3722  1d6f		       00 02 07 07*	      .byte.b	$00,$02,$07,$07,$0f,$0f,$0f,$07	; $fd6f (*)
   3723  1d77		       07 02 00 00*	      .byte.b	$07,$02,$00,$00,$00,$00,$00,$00	; $fd77 (*)
   3724  1d7f		       00 00 04 0e*	      .byte.b	$00,$00,$04,$0e,$0e,$0f,$0e,$06	; $fd7f (*)
   3725  1d87		       00 00 00 00*	      .byte.b	$00,$00,$00,$00,$00,$00,$00,$00	; $fd87 (*)
   3726  1d8f		       00 00 02 07*	      .byte.b	$00,$00,$02,$07,$07,$0f,$1f,$0f	; $fd8f (*)
   3727  1d97		       07 07 02 00*	      .byte.b	$07,$07,$02,$00,$00,$00,$00,$00	; $fd97 (*)
   3728  1d9f		       00 00 00 00*	      .byte.b	$00,$00,$00,$00,$00,$00,$00,$01	; $fd9f (*)
   3729  1da7		       03 01 00 00*	      .byte.b	$03,$01,$00,$00,$00,$00,$00,$80	; $fda7 (*)
   3730  1daf		       80 c0 e0 f8*	      .byte.b	$80,$c0,$e0,$f8,$e0,$c0,$80,$80	; $fdaf (*)
   3731  1db7		       00 00 00 c0*	      .byte.b	$00,$00,$00,$c0,$e0,$e0,$c0,$00	; $fdb7 (*)
   3732  1dbf		       00 00 00 00*	      .byte.b	$00,$00,$00,$00,$00,$00,$00,$00	; $fdbf (*)
   3733  1dc7		       00 80 80 80*	      .byte.b	$00,$80,$80,$80,$80,$80,$80,$00	; $fdc7 (*)
   3734  1dcf		       00 00 00 00*	      .byte.b	$00,$00,$00,$00,$00,$00,$00,$00	; $fdcf (*)
   3735  1dd7		       00 c0 e0 e0*	      .byte.b	$00,$c0,$e0,$e0,$c0,$00,$00,$00	; $fdd7 (*)
   3736  1ddf		       00 22 41 08*	      .byte.b	$00,$22,$41,$08,$14,$08,$41,$22	; $fddf (*)
   3737  1de7		       00 41 08 14*	      .byte.b	$00,$41,$08,$14,$2a,$14,$08,$41	; $fde7 (*)
   3738  1def		       00 08 14 3e*	      .byte.b	$00,$08,$14,$3e,$55,$3e,$14,$08	; $fdef (*)
   3739  1df7		       00 14 3e 63*	      .byte.b	$00,$14,$3e,$63,$2a,$63,$3e,$14	; $fdf7 (*)
   3740  1dff		       00 07 07 07*	      .byte.b	$00,$07,$07,$07,$03,$03,$03,$01	; $fdff (*)
   3741  1e07		       00 00 00 00*	      .byte.b	$00,$00,$00,$00,$00,$00,$00,$00	; $fe07 (*)
   3742  1e0f		       30 78 7c 3c*	      .byte.b	$30,$78,$7c,$3c,$3c,$18,$08,$00	; $fe0f (*)
   3743  1e17		       00 00 00 00*	      .byte.b	$00,$00,$00,$00,$00,$00,$00,$00	; $fe17 (*)
   3744  1e1f		       00 00 00 00*	      .byte.b	$00,$00,$00,$00,$00,$00,$00,$00	; $fe1f (*)
   3745  1e27		       00 00 00 00*	      .byte.b	$00,$00,$00,$00,$00,$00,$00,$01	; $fe27 (*)
   3746  1e2f		       0f 01 00 00*	      .byte.b	$0f,$01,$00,$00,$00,$00,$00,$00	; $fe2f (*)
   3747  1e37		       00 80 c0 e0*	      .byte.b	$00,$80,$c0,$e0,$f8,$fc,$fe,$fc	; $fe37 (*)
   3748  1e3f		       f0 e0 c0 c0*	      .byte.b	$f0,$e0,$c0,$c0,$80,$80,$00,$00	; $fe3f (*)
   3749  1e47		       00 00 00 00*	      .byte.b	$00,$00,$00,$00,$00,$00,$00,$00	; $fe47 (*)
   3750  1e4f		       00 03 07 03*	      .byte.b	$00,$03,$07,$03,$01,$00,$00,$00	; $fe4f (*)
   3751  1e57		       00 00 80 e0*	      .byte.b	$00,$00,$80,$e0,$f8,$f8,$f8,$f8	; $fe57 (*)
   3752  1e5f		       f0 c0 80 00*	      .byte.b	$f0,$c0,$80,$00,$00,$00,$00,$00	; $fe5f (*)
   3753  1e67		       00 00 00 03*	      .byte.b	$00,$00,$00,$03,$0f,$1f,$3f,$3e	; $fe67 (*)
   3754  1e6f		       3c 38 30 00*	      .byte.b	$3c,$38,$30,$00,$00,$00,$00,$00	; $fe6f (*)
   3755  1e77		       00 07 07 07*	      .byte.b	$00,$07,$07,$07,$03,$03,$03,$01	; $fe77 (*)
   3756  1e7f		       00 00 00 00*	      .byte.b	$00,$00,$00,$00,$00,$00,$80,$80	; $fe7f (*)
   3757  1e87		       c0 e0 e0 c0*	      .byte.b	$c0,$e0,$e0,$c0,$c0,$80,$00,$00	; $fe87 (*)
   3758  1e8f		       00 00 00 00*	      .byte.b	$00,$00,$00,$00,$00,$00,$00,$00	; $fe8f (*)
   3759  1e97		       30 38 1c 1e*	      .byte.b	$30,$38,$1c,$1e,$0e,$0c,$0c,$00	; $fe97 (*)
   3760  1e9f		       00 00 80 80*	      .byte.b	$00,$00,$80,$80,$c0,$f0,$fc,$ff	; $fe9f (*)
   3761  1ea7		       ff ff ff fe*	      .byte.b	$ff,$ff,$ff,$fe,$fc,$f8,$f0,$e0	; $fea7 (*)
   3762  1eaf		       00 00 00 00*	      .byte.b	$00,$00,$00,$00,$00,$00,$00,$00	; $feaf (*)
   3763  1eb7		       00 00 80 e0*	      .byte.b	$00,$00,$80,$e0,$f0,$e0,$80,$00	; $feb7 (*)
   3764  1ebf		       00 00 00 00*	      .byte.b	$00,$00,$00,$00,$00,$00,$00,$00	; $febf (*)
   3765  1ec7		       03 07 03 03*	      .byte.b	$03,$07,$03,$03,$01,$01,$00,$00	; $fec7 (*)
   3766  1ecf		       00 80 c0 f0*	      .byte.b	$00,$80,$c0,$f0,$f0,$e0,$e0,$c0	; $fecf (*)
   3767  1ed7		       c0 80 80 00*	      .byte.b	$c0,$80,$80,$00,$00,$00,$00,$00	; $fed7 (*)
   3768  1edf		       00 00 03 07*	      .byte.b	$00,$00,$03,$07,$07,$03,$01,$00	; $fedf (*)
   3769  1ee7		       00 c0 e0 f0*	      .byte.b	$00,$c0,$e0,$f0,$f8,$f8,$fc,$fc	; $fee7 (*)
   3770  1eef		       fc		      .byte.b	$fc	; $feef (*)
   3771  1ef0
   3772  1ef0				   Lfef0
   3773  1ef0		       3c		      .byte.b	$3c	; |  ####  |		 $fef0 (G)
   3774  1ef1		       3c		      .byte.b	$3c	; |  ####  |		 $fef1 (G)
   3775  1ef2		       7e		      .byte.b	$7e	; | ###### |		 $fef2 (G)
   3776  1ef3		       ff		      .byte.b	$ff	; |########|		 $fef3 (G)
   3777  1ef4
   3778  1ef4				   Lfef4
   3779  1ef4		       b5 8c		      lda	ram_8C,x	;4	   
   3780  1ef6		       30 8c		      bmi	Lfef9	;2/3	   
   3781  1ef8		       60		      rts		;6   =  12
   3782  1ef9
   3783  1ef9				   Lfef9
   3784  1ef9		       20 ea fc 	      jsr	Lfcea	;6	    *
   3785  1efc		       20 e1 f8 	      jsr	Lf8e1	;6	    *
   3786  1eff		       60		      rts		;6   =  18 *
   3787  1f00
   3788  1f00		       80 00 07 04*	      .byte.b	$80,$00,$07,$04,$77,$71,$75,$57	; $ff00 (*)
   3789  1f08		       50 00 d6 1c*	      .byte.b	$50,$00,$d6,$1c,$36,$1c,$49,$7f	; $ff08 (*)
   3790  1f10		       49 1c 3e 00*	      .byte.b	$49,$1c,$3e,$00,$b9,$8a,$a1,$81	; $ff10 (*)
   3791  1f18		       00 00 00 00*	      .byte.b	$00,$00,$00,$00,$00,$00,$1c,$70	; $ff18 (*)
   3792  1f20		       07 70 0e 00*	      .byte.b	$07,$70,$0e,$00,$cf,$a6,$00,$81	; $ff20 (*)
   3793  1f28		       77 36 14 22*	      .byte.b	$77,$36,$14,$22,$ae,$14,$36,$77	; $ff28 (*)
   3794  1f30		       00 bf ce 00*	      .byte.b	$00,$bf,$ce,$00,$ef,$81,$00,$00	; $ff30 (*)
   3795  1f38		       00 00 00 00*	      .byte.b	$00,$00,$00,$00,$68,$2f,$0a,$0c	; $ff38 (*)
   3796  1f40		       08 00 80 81*	      .byte.b	$08,$00,$80,$81,$00,$00,$07,$01	; $ff40 (*)
   3797  1f48		       57 54 77 50*	      .byte.b	$57,$54,$77,$50,$50,$00,$00,$00	; $ff48 (*)
   3798  1f50		       00 80 7e 86*	      .byte.b	$00,$80,$7e,$86,$80,$a6,$5a,$7e	; $ff50 (*)
   3799  1f58		       80 7f 00 b1*	      .byte.b	$80,$7f,$00,$b1,$f9,$f6,$06,$1e	; $ff58 (*)
   3800  1f60		       12 1e 12 1e*	      .byte.b	$12,$1e,$12,$1e,$7f,$00,$b9,$00	; $ff60 (*)
   3801  1f68		       d4 00 81 1c*	      .byte.b	$d4,$00,$81,$1c,$2a,$55,$2a,$14	; $ff68 (*)
   3802  1f70		       3e 00 c1 e6*	      .byte.b	$3e,$00,$c1,$e6,$00,$00,$00,$81	; $ff70 (*)
   3803  1f78		       7f 55 2a 55*	      .byte.b	$7f,$55,$2a,$55,$2a,$3e,$00,$b9	; $ff78 (*)
   3804  1f80		       86 91 81 7e*	      .byte.b	$86,$91,$81,$7e,$80,$86,$a6,$5a	; $ff80 (*)
   3805  1f88		       7e 86 7f 00*	      .byte.b	$7e,$86,$7f,$00,$d6,$77,$77,$80	; $ff88 (*)
   3806  1f90		       d6 77 00 c1*	      .byte.b	$d6,$77,$00,$c1,$b6,$a1,$81,$1c	; $ff90 (*)
   3807  1f98		       2a 55 2a 14*	      .byte.b	$2a,$55,$2a,$14,$3e,$00,$00,$00	; $ff98 (*)
   3808  1fa0		       00 00 86 70*	      .byte.b	$00,$00,$86,$70,$5f,$72,$05,$00	; $ffa0 (*)
   3809  1fa8		       c1 00 81 84*	      .byte.b	$c1,$00,$81,$84,$1f,$89,$f9,$91	; $ffa8 (*)
   3810  1fb0		       f9 18 81 80*	      .byte.b	$f9,$18,$81,$80,$1c,$1f,$f1,$7f	; $ffb0 (*)
   3811  1fb8		       89 f9 f9 89*	      .byte.b	$89,$f9,$f9,$89,$91,$f1,$f9,$89	; $ffb8 (*)
   3812  1fc0		       f9 f9 89 f9*	      .byte.b	$f9,$f9,$89,$f9,$89,$f9,$89,$3f	; $ffc0 (*)
   3813  1fc8		       91 81 70 40*	      .byte.b	$91,$81,$70,$40,$84,$89,$7e,$f9	; $ffc8 (*)
   3814  1fd0		       91 f9 f1 00*	      .byte.b	$91,$f9,$f1,$00,$b9,$84,$00,$00	; $ffd0 (*)
   3815  1fd8		       89 38 78 7b*	      .byte.b	$89,$38,$78,$7b,$f9,$89,$f9,$6f	; $ffd8 (*)
   3816  1fe0		       00 b1 92 e9*	      .byte.b	$00,$b1,$92,$e9,$f9,$00,$30,$30	; $ffe0 (*)
   3817  1fe8		       30 e9 30 30*	      .byte.b	$30,$e9,$30,$30,$30,$10,$00,$00	; $ffe8 (*)
   3818  1ff0		       00 00		      .byte.b	$00,$00	; $fff0 (*)
   3819  1ff2				   Lfff2
   3820  1ff2		       a4		      .byte.b	$a4	; $fff2 (D)
   3821  1ff3		       15 95 06 86*	      .byte.b	$15,$95,$06,$86,$f7	; $fff3 (*)
   3822  1ff8				   Lfff8
   3823  1ff8		       00		      .byte.b	$00	; $fff8 (D)
   3824  1ff9		       00 00 f0 	      .byte.b	$00,$00,$f0	; $fff9 (*)
   3825  1ffc		       00 f0		      .byte.b	$00,$f0	; $fffc (D)
   3826  1ffe		       00		      .byte.b	$00	; $fffe (*)
   3827  1fff		       f0		      .byte.b	$f0	; $ffff (*)
------- FILE Raiders.asm LEVEL 1 PASS 2
      1  2000 ????						; Disassembly of ~\Projects\Programming\reversing\6502\raiders\raiders.bin
      2  2000 ????						; Disassembled 07/02/23 15:14:09
      3  2000 ????						; Using Stella 6.7
      4  2000 ????						;
      5  2000 ????						; ROM properties name : Raiders of the Lost Ark (1982) (Atari)
      6  2000 ????						; ROM properties MD5  : f724d3dd2471ed4cf5f191dbb724b69f
      7  2000 ????						; Bankswitch type     : F8* (8K) 
      8  2000 ????						;
      9  2000 ????						; Legend: *  = CODE not yet run (tentative code)
     10  2000 ????						;	   D  = DATA directive (referenced in some way)
     11  2000 ????						;	   G  = GFX directive, shown as '#' (stored in player, missile, ball)
     12  2000 ????						;	   P  = PGFX directive, shown as '*' (stored in playfield)
     13  2000 ????						;	   C  = COL directive, shown as color constants (stored in player color)
     14  2000 ????						;	   CP = PCOL directive, shown as color constants (stored in playfield color)
     15  2000 ????						;	   CB = BCOL directive, shown as color constants (stored in background color)
     16  2000 ????						;	   A  = AUD directive (stored in audio registers)
     17  2000 ????						;	   i  = indexed accessed only
     18  2000 ????						;	   c  = used by code executed in RAM
     19  2000 ????						;	   s  = used by stack
     20  2000 ????						;	   !  = page crossed, 1 cycle penalty
     21  2000 ????
     22  2000 ????				      processor	6502
     23  2000 ????
     24  2000 ????
     25  2000 ????						;-----------------------------------------------------------
     26  2000 ????						;	Color constants
     27  2000 ????						;-----------------------------------------------------------
     28  2000 ????
     29  2000 ????						;BLACK 	   = $00
     30  2000 ????						;YELLOW	   = $10
     31  2000 ????						;BROWN 	   = $20
     32  2000 ????						;ORANGE	   = $30
     33  2000 ????						;RED		   = $40
     34  2000 ????						;MAUVE 	   = $50
     35  2000 ????						;VIOLET	   = $60
     36  2000 ????						;PURPLE	   = $70
     37  2000 ????						;BLUE		   = $80
     38  2000 ????						;BLUE_CYAN	   = $90
     39  2000 ????						;CYAN		   = $a0
     40  2000 ????						;CYAN_GREEN	   = $b0
     41  2000 ????						;GREEN 	   = $c0
     42  2000 ????						;GREEN_YELLOW	   = $d0
     43  2000 ????						;GREEN_BEIGE	   = $e0
     44  2000 ????						;BEIGE 	   = $f0
     45  2000 ????
     46  2000 ????
     47  2000 ????						;-----------------------------------------------------------
     48  2000 ????						;	TIA and IO constants accessed
     49  2000 ????						;-----------------------------------------------------------
     50  2000 ????
     51  2000 ????	       00 00	   CXM0P      =	$00	; (R)
     52  2000 ????	       00 05	   CXM1FB     =	$05	; (R)
     53  2000 ????	       00 07	   CXPPMM     =	$07	; (R)
     54  2000 ????	       00 0c	   INPT4      =	$0c	; (R)
     55  2000 ????	       00 0d	   INPT5      =	$0d	; (R)
     56  2000 ????
     57  2000 ????	       00 00	   VSYNC      =	$00	; (W)
     58  2000 ????	       00 01	   VBLANK     =	$01	; (W)
     59  2000 ????	       00 02	   WSYNC      =	$02	; (W)
     60  2000 ????	       00 04	   NUSIZ0     =	$04	; (W)
     61  2000 ????	       00 05	   NUSIZ1     =	$05	; (W)
     62  2000 ????	       00 06	   COLUP0     =	$06	; (W)
     63  2000 ????	       00 07	   COLUP1     =	$07	; (W)
     64  2000 ????	       00 08	   COLUPF     =	$08	; (W)
     65  2000 ????	       00 09	   COLUBK     =	$09	; (W)
     66  2000 ????	       00 0a	   CTRLPF     =	$0a	; (W)
     67  2000 ????	       00 0b	   REFP0      =	$0b	; (W)
     68  2000 ????	       00 0c	   REFP1      =	$0c	; (W)
     69  2000 ????	       00 0d	   PF0	      =	$0d	; (W)
     70  2000 ????	       00 0e	   PF1	      =	$0e	; (W)
     71  2000 ????	       00 0f	   PF2	      =	$0f	; (W)
     72  2000 ????	       00 10	   RESP0      =	$10	; (W)
     73  2000 ????	       00 11	   RESP1      =	$11	; (W)
     74  2000 ????						;RESM0 	 = $12	; (Wi)
     75  2000 ????						;RESM1 	 = $13	; (Wi)
     76  2000 ????	       00 14	   RESBL      =	$14	; (W)
     77  2000 ????	       00 15	   AUDC0      =	$15	; (W)
     78  2000 ????						;AUDC1 	 = $16	; (Wi)
     79  2000 ????	       00 17	   AUDF0      =	$17	; (W)
     80  2000 ????						;AUDF1 	 = $18	; (Wi)
     81  2000 ????	       00 19	   AUDV0      =	$19	; (W)
     82  2000 ????						;AUDV1 	 = $1a	; (Wi)
     83  2000 ????	       00 1b	   GRP0       =	$1b	; (W)
     84  2000 ????	       00 1c	   GRP1       =	$1c	; (W)
     85  2000 ????	       00 1d	   ENAM0      =	$1d	; (W)
     86  2000 ????	       00 1e	   ENAM1      =	$1e	; (W)
     87  2000 ????	       00 1f	   ENABL      =	$1f	; (W)
     88  2000 ????	       00 20	   HMP0       =	$20	; (W)
     89  2000 ????	       00 21	   HMP1       =	$21	; (W)
     90  2000 ????						;HMM0		 = $22	; (Wi)
     91  2000 ????						;HMM1		 = $23	; (Wi)
     92  2000 ????	       00 24	   HMBL       =	$24	; (W)
     93  2000 ????	       00 25	   VDELP0     =	$25	; (W)
     94  2000 ????	       00 26	   VDELP1     =	$26	; (W)
     95  2000 ????	       00 2a	   HMOVE      =	$2a	; (W)
     96  2000 ????	       00 2b	   HMCLR      =	$2b	; (W)
     97  2000 ????	       00 2c	   CXCLR      =	$2c	; (W)
     98  2000 ????
     99  2000 ????	       02 80	   SWCHA      =	$0280
    100  2000 ????	       02 82	   SWCHB      =	$0282
    101  2000 ????	       02 84	   INTIM      =	$0284
    102  2000 ????	       02 96	   TIM64T     =	$0296
    103  2000 ????
    104  2000 ????
    105  2000 ????						;-----------------------------------------------------------
    106  2000 ????						;	RIOT RAM (zero-page) labels
    107  2000 ????						;-----------------------------------------------------------
    108  2000 ????
    109  2000 ????	       00 00	   zero_page  =	$00
    110  2000 ????	       00 80	   scan_line  =	$80
    111  2000 ????	       00 81	   room_num   =	$81
    112  2000 ????	       00 82	   frame_counter =	$82
    113  2000 ????	       00 83	   time_of_day =	$83
    114  2000 ????	       00 84	   ram_84     =	$84	; (c)
    115  2000 ????	       00 85	   ram_85     =	$85	; (c)
    116  2000 ????	       00 86	   ram_86     =	$86	; (c)
    117  2000 ????	       00 87	   ram_87     =	$87	; (c)
    118  2000 ????	       00 88	   ram_88     =	$88	; (c)
    119  2000 ????	       00 89	   ram_89     =	$89	; (c)
    120  2000 ????	       00 8a	   ram_8A     =	$8a
    121  2000 ????	       00 8b	   ram_8B     =	$8b
    122  2000 ????	       00 8c	   ram_8C     =	$8c
    123  2000 ????	       00 8d	   ram_8D     =	$8d
    124  2000 ????	       00 8e	   ram_8E     =	$8e
    125  2000 ????	       00 8f	   ram_8F     =	$8f
    126  2000 ????	       00 90	   ram_90     =	$90
    127  2000 ????	       00 91	   ram_91     =	$91
    128  2000 ????	       00 92	   indy_dir   =	$92
    129  2000 ????	       00 93	   ram_93     =	$93
    130  2000 ????	       00 94	   ram_94     =	$94
    131  2000 ????	       00 95	   ram_95     =	$95
    132  2000 ????	       00 96	   ram_96     =	$96
    133  2000 ????	       00 97	   ram_97     =	$97
    134  2000 ????	       00 98	   ram_98     =	$98
    135  2000 ????	       00 99	   ram_99     =	$99
    136  2000 ????	       00 9a	   ram_9A     =	$9a
    137  2000 ????	       00 9b	   ram_9B     =	$9b
    138  2000 ????	       00 9c	   ram_9C     =	$9c
    139  2000 ????	       00 9d	   ram_9D     =	$9d
    140  2000 ????	       00 9e	   ram_9E     =	$9e
    141  2000 ????	       00 9f	   lives_left =	$9f
    142  2000 ????	       00 a0	   num_bullets =	$a0
    143  2000 ????	       00 a1	   ram_A1     =	$a1
    144  2000 ????	       00 a2	   ram_A2     =	$a2
    145  2000 ????	       00 a3	   ram_A3     =	$a3
    146  2000 ????	       00 a4	   diamond_h  =	$a4
    147  2000 ????	       00 a5	   grenade_used =	$a5
    148  2000 ????	       00 a6	   escape_hatch_used =	$a6
    149  2000 ????	       00 a7	   shovel_used =	$a7
    150  2000 ????	       00 a8	   parachute_used =	$a8
    151  2000 ????	       00 a9	   ankh_used  =	$a9
    152  2000 ????	       00 aa	   yar_found  =	$aa
    153  2000 ????	       00 ab	   ark_found  =	$ab
    154  2000 ????	       00 ac	   thief_shot =	$ac
    155  2000 ????	       00 ad	   mesa_entered =	$ad
    156  2000 ????	       00 ae	   unknown_action =	$ae
    157  2000 ????	       00 af	   ram_AF     =	$af
    158  2000 ????
    159  2000 ????	       00 b1	   ram_B1     =	$b1
    160  2000 ????	       00 b2	   ram_B2     =	$b2
    161  2000 ????
    162  2000 ????	       00 b4	   ram_B4     =	$b4
    163  2000 ????	       00 b5	   ram_B5     =	$b5
    164  2000 ????	       00 b6	   ram_B6     =	$b6
    165  2000 ????	       00 b7	   inv_slot1_lo =	$b7
    166  2000 ????	       00 b8	   inv_slot1_hi =	$b8
    167  2000 ????	       00 b9	   inv_slot2_lo =	$b9
    168  2000 ????	       00 ba	   inv_slot2_hi =	$ba
    169  2000 ????	       00 bb	   inv_slot3_lo =	$bb
    170  2000 ????	       00 bc	   inv_slot3_hi =	$bc
    171  2000 ????	       00 bd	   inv_slot4_lo =	$bd
    172  2000 ????	       00 be	   inv_slot4_hi =	$be
    173  2000 ????	       00 bf	   pwatch_state =	$bf
    174  2000 ????	       00 c0	   pwatch_Addr =	$c0
    175  2000 ????	       00 c1	   inv_slot6_lo =	$c1
    176  2000 ????	       00 c2	   inv_slot6_hi =	$c2
    177  2000 ????	       00 c3	   cursor_pos =	$c3
    178  2000 ????	       00 c4	   ram_C4     =	$c4
    179  2000 ????	       00 c5	   current_inv =	$c5
    180  2000 ????	       00 c6	   ram_C6     =	$c6
    181  2000 ????	       00 c7	   ram_C7     =	$c7
    182  2000 ????	       00 c8	   enemy_x    =	$c8
    183  2000 ????	       00 c9	   indy_x     =	$c9
    184  2000 ????	       00 ca	   ram_CA     =	$ca
    185  2000 ????	       00 cb	   ram_CB     =	$cb
    186  2000 ????	       00 cc	   ram_CC     =	$cc
    187  2000 ????
    188  2000 ????	       00 ce	   enemy_y    =	$ce
    189  2000 ????	       00 cf	   indy_y     =	$cf
    190  2000 ????	       00 d0	   ram_D0     =	$d0
    191  2000 ????	       00 d1	   ram_D1     =	$d1
    192  2000 ????	       00 d2	   ram_D2     =	$d2
    193  2000 ????
    194  2000 ????	       00 d4	   ram_D4     =	$d4
    195  2000 ????	       00 d5	   ram_D5     =	$d5
    196  2000 ????	       00 d6	   ram_D6     =	$d6
    197  2000 ????	       00 d7	   ram_D7     =	$d7
    198  2000 ????	       00 d8	   ram_D8     =	$d8
    199  2000 ????	       00 d9	   indy_anim  =	$d9
    200  2000 ????	       00 da	   ram_DA     =	$da
    201  2000 ????	       00 db	   indy_h     =	$db
    202  2000 ????	       00 dc	   snake_y    =	$dc
    203  2000 ????	       00 dd	   emy_anim   =	$dd
    204  2000 ????	       00 de	   ram_DE     =	$de
    205  2000 ????	       00 df	   ram_DF     =	$df
    206  2000 ????	       00 e0	   ram_E0     =	$e0
    207  2000 ????	       00 e1	   PF1_data   =	$e1
    208  2000 ????	       00 e2	   ram_E2     =	$e2
    209  2000 ????	       00 e3	   PF2_data   =	$e3
    210  2000 ????	       00 e4	   ram_E4     =	$e4
    211  2000 ????	       00 e5	   ram_E5     =	$e5
    212  2000 ????	       00 e6	   ram_E6     =	$e6
    213  2000 ????	       00 e7	   ram_E7     =	$e7
    214  2000 ????	       00 e8	   ram_E8     =	$e8
    215  2000 ????	       00 e9	   ram_E9     =	$e9
    216  2000 ????	       00 ea	   ram_EA     =	$ea
    217  2000 ????	       00 eb	   ram_EB     =	$eb
    218  2000 ????	       00 ec	   ram_EC     =	$ec
    219  2000 ????	       00 ed	   ram_ED     =	$ed
    220  2000 ????	       00 ee	   ram_EE     =	$ee
    221  2000 ????						;		   $ef	(i)
    222  2000 ????						;		   $f0	(i)
    223  2000 ????						;		   $f1	(i)
    224  2000 ????						;		   $f2	(i)
    225  2000 ????
    226  2000 ????						;		   $fc	(s)
    227  2000 ????						;		   $fd	(s)
    228  2000 ????						;		   $fe	(s)
    229  2000 ????						;		   $ff	(s)
    230  2000 ????
    231  2000 ????
    232  2000 ????						;-----------------------------------------------------------
    233  2000 ????						;	User Defined Labels
    234  2000 ????						;-----------------------------------------------------------
    235  2000 ????
    236  2000 ????						;Break 	  = $dd68
    237  2000 ????
    238  2000 ????
    239  2000 ????						;***********************************************************
    240  2000 ????						;	Bank 0 / 0..1
    241  2000 ????						;***********************************************************
    242  2000 ????
    243  2000 ????				      SEG	CODE
    244  0000					      ORG	$0000
    245  0000					      RORG	$d000
    246  0000
    247  0000							;NOTE: 1st bank's vector points right at the cold start routine
    248  0000		       ad f8 ff 	      lda	$FFF8	;4 trigger 1st bank (no effect here, matching LDA in 2nd)
    249  0003
    250  0003				   Ld003
    251  0003		       4c 68 dd 	      jmp	game_start	;3   =   3
    252  0006
    253  0006				   Ld006
    254  0006		       a2 04		      ldx	#$04	;2   =   2
    255  0008				   Ld008
    256  0008		       85 02		      sta	WSYNC	;3   =   3
    257  000a							;---------------------------------------
    258  000a		       b5 c8		      lda	enemy_x,x	;4	   
    259  000c		       a8		      tay		;2	   
    260  000d		       b9 00 db 	      lda	Ldb00,y	;4	   
    261  0010		       95 20		      sta	HMP0,x	;4	   
    262  0012		       29 0f		      and	#$0f	;2	   
    263  0014		       a8		      tay		;2   =  18
    264  0015				   Ld015
    265  0015		       88		      dey		;2	   
    266  0016		       10 fd		      bpl	Ld015	;2/3	   
    267  0018		       95 10		      sta	RESP0,x	;4	   
    268  001a		       ca		      dex		;2	   
    269  001b		       10 eb		      bpl	Ld008	;2/3	   
    270  001d		       85 02		      sta	WSYNC	;3   =  15
    271  001f							;---------------------------------------
    272  001f		       85 2a		      sta	HMOVE	;3	   
    273  0021		       4c 9c df 	      jmp	Ldf9c	;3   =   6
    274  0024
    275  0024		       24 31 10 34*	      .byte.b	$24,$31,$10,$34,$a6,$81,$e0,$0a	; $d024 (*)
    276  002c		       90 2e f0 0f*	      .byte.b	$90,$2e,$f0,$0f,$a5,$d1,$69,$01	; $d02c (*)
    277  0034		       4a 4a 4a 4a*	      .byte.b	$4a,$4a,$4a,$4a,$aa,$a9,$08,$55	; $d034 (*)
    278  003c		       df 95 df a5*	      .byte.b	$df,$95,$df,$a5,$8f,$10,$11,$29	; $d03c (*)
    279  0044		       7f 85 8f a5*	      .byte.b	$7f,$85,$8f,$a5,$95,$29,$1f,$f0	; $d044 (*)
    280  004c		       03 20 e9 dc*	      .byte.b	$03,$20,$e9,$dc,$a9,$40,$85,$95	; $d04c (*)
    281  0054		       a9 7f 85 d1*	      .byte.b	$a9,$7f,$85,$d1,$a9,$04,$85,$ac	; $d054 (*)
    282  005c		       24 35 10 4a*	      .byte.b	$24,$35,$10,$4a,$a6,$81,$e0,$09	; $d05c (*)
    283  0064		       f0 56 e0 06*	      .byte.b	$f0,$56,$e0,$06,$f0,$04,$e0,$08	; $d064 (*)
    284  006c		       d0 3c a5 d1*	      .byte.b	$d0,$3c,$a5,$d1,$e5,$d4,$4a,$4a	; $d06c (*)
    285  0074		       f0 11 aa a4*	      .byte.b	$f0,$11,$aa,$a4,$cb,$c0,$12,$90	; $d074 (*)
    286  007c		       27 c0 8d b0*	      .byte.b	$27,$c0,$8d,$b0,$23,$a9,$00,$95	; $d07c (*)
    287  0084		       e5 f0 1d a5*	      .byte.b	$e5,$f0,$1d,$a5,$cb,$c9,$30,$b0	; $d084 (*)
    288  008c		       11 e9 10 49*	      .byte.b	$11,$e9,$10,$49,$1f,$4a,$4a,$aa	; $d08c (*)
    289  0094		       bd 5c dc 25*	      .byte.b	$bd,$5c,$dc,$25,$e5,$85,$e5,$4c	; $d094 (*)
    290  009c		       a4 d0 e9 71*	      .byte.b	$a4,$d0,$e9,$71,$c9,$20,$90,$ed	; $d09c (*)
    291  00a4		       a0 7f 84 8f*	      .byte.b	$a0,$7f,$84,$8f,$84,$d1,$24,$35	; $d0a4 (*)
    292  00ac		       50 0e 24 93*	      .byte.b	$50,$0e,$24,$93,$50,$0a,$a9,$5a	; $d0ac (*)
    293  00b4		       85 d2 85 dc*	      .byte.b	$85,$d2,$85,$dc,$85,$8f,$85,$d1	; $d0b4 (*)
    294  00bc		       24 33 50 2d*	      .byte.b	$24,$33,$50,$2d,$a6,$81,$e0,$06	; $d0bc (*)
    295  00c4		       f0 1c a5 c5*	      .byte.b	$f0,$1c,$a5,$c5,$c9,$02,$f0,$21	; $d0c4 (*)
    296  00cc		       24 93 10 0a*	      .byte.b	$24,$93,$10,$0a,$a5,$83,$29,$07	; $d0cc (*)
    297  00d4		       09 80 85 a1*	      .byte.b	$09,$80,$85,$a1,$d0,$13,$50,$11	; $d0d4 (*)
    298  00dc		       a9 80 85 9d*	      .byte.b	$a9,$80,$85,$9d,$d0,$0b,$a5,$d6	; $d0dc (*)
    299  00e4		       c9 ba d0 05*	      .byte.b	$c9,$ba,$d0,$05,$a9,$0f,$20,$e9	; $d0e4 (*)
    300  00ec		       dc a2 05 e4*	      .byte.b	$dc,$a2,$05,$e4,$81,$d0,$3a,$24	; $d0ec (*)
    301  00f4		       30 10 0f 86*	      .byte.b	$30,$10,$0f,$86,$cf,$a9,$0c,$85	; $d0f4 (*)
    302  00fc		       81 20 78 d8*	      .byte.b	$81,$20,$78,$d8,$a9,$4c,$85,$c9	; $d0fc (*)
    303  0104		       d0 25 a6 cf*	      .byte.b	$d0,$25,$a6,$cf,$e0,$4f,$90,$21	; $d104 (*)
    304  010c		       a9 0a 85 81*	      .byte.b	$a9,$0a,$85,$81,$20,$78,$d8,$a5	; $d10c (*)
    305  0114		       eb 85 df a5*	      .byte.b	$eb,$85,$df,$a5,$ec,$85,$cf,$a5	; $d114 (*)
    306  011c		       ed 85 c9 a9*	      .byte.b	$ed,$85,$c9,$a9,$fd,$25,$b4,$85	; $d11c (*)
    307  0124		       b4 30 04 a9*	      .byte.b	$b4,$30,$04,$a9,$80,$85,$9d,$85	; $d124 (*)
    308  012c		       2c 24 37 30*	      .byte.b	$2c,$24,$37,$30,$0f,$a2,$00,$86	; $d12c (*)
    309  0134		       91 ca 86 97*	      .byte.b	$91,$ca,$86,$97,$26,$95,$18,$66	; $d134 (*)
    310  013c		       95 4c b4 d2*	      .byte.b	$95,$4c,$b4,$d2,$a5,$81,$d0,$13	; $d13c (*)
    311  0144		       a5 af 29 07*	      .byte.b	$a5,$af,$29,$07,$aa,$bd,$78,$df	; $d144 (*)
    312  014c		       20 e9 dc 90*	      .byte.b	$20,$e9,$dc,$90,$ec,$a9,$01,$85	; $d14c (*)
    313  0154		       df d0 e6 0a*	      .byte.b	$df,$d0,$e6,$0a,$aa,$bd,$9c,$dc	; $d154 (*)
    314  015c		       48 bd 9b dc*	      .byte.b	$48,$bd,$9b,$dc,$48,$60,$a5,$cf	; $d15c (*)
    315  0164		       c9 3f 90 22*	      .byte.b	$c9,$3f,$90,$22,$a5,$96,$c9,$54	; $d164 (*)
    316  016c		       d0 53 a5 8c*	      .byte.b	$d0,$53,$a5,$8c,$c5,$8b,$d0,$13	; $d16c (*)
    317  0174		       a9 58 85 9c*	      .byte.b	$a9,$58,$85,$9c,$85,$9e,$20,$db	; $d174 (*)
    318  017c		       dd a9 0d 85*	      .byte.b	$dd,$a9,$0d,$85,$81,$20,$78,$d8	; $d17c (*)
    319  0184		       4c d8 d3 4c*	      .byte.b	$4c,$d8,$d3,$4c,$da,$d2,$a9,$0b	; $d184 (*)
    320  018c		       d0 06 a9 07*	      .byte.b	$d0,$06,$a9,$07,$d0,$02,$a9,$04	; $d18c (*)
    321  0194		       24 95 30 29*	      .byte.b	$24,$95,$30,$29,$18,$20,$10,$da	; $d194 (*)
    322  019c		       b0 06 38 20*	      .byte.b	$b0,$06,$38,$20,$10,$da,$90,$1d	; $d19c (*)
    323  01a4		       c0 0b d0 05*	      .byte.b	$c0,$0b,$d0,$05,$66,$b2,$18,$26	; $d1a4 (*)
    324  01ac		       b2 a5 95 20*	      .byte.b	$b2,$a5,$95,$20,$59,$dd,$98,$09	; $d1ac (*)
    325  01b4		       c0 85 95 d0*	      .byte.b	$c0,$85,$95,$d0,$08,$a2,$00,$86	; $d1b4 (*)
    326  01bc		       b6 a9 80 85*	      .byte.b	$b6,$a9,$80,$85,$9d,$4c,$b4,$d2	; $d1bc (*)
    327  01c4		       24 b4 70 20*	      .byte.b	$24,$b4,$70,$20,$10,$1e,$a5,$c9	; $d1c4 (*)
    328  01cc		       c9 2b 90 12*	      .byte.b	$c9,$2b,$90,$12,$a6,$cf,$e0,$27	; $d1cc (*)
    329  01d4		       90 0c e0 2b*	      .byte.b	$90,$0c,$e0,$2b,$b0,$08,$a9,$40	; $d1d4 (*)
    330  01dc		       05 b4 85 b4*	      .byte.b	$05,$b4,$85,$b4,$d0,$06,$a9,$03	; $d1dc (*)
    331  01e4		       38 20 10 da*	      .byte.b	$38,$20,$10,$da,$4c,$b4,$d2,$24	; $d1e4 (*)
    332  01ec		       33 10 2b a4*	      .byte.b	$33,$10,$2b,$a4,$cf,$c0,$3a,$90	; $d1ec (*)
    333  01f4		       0b a9 e0 25*	      .byte.b	$0b,$a9,$e0,$25,$91,$09,$43,$85	; $d1f4 (*)
    334  01fc		       91 4c b4 d2*	      .byte.b	$91,$4c,$b4,$d2,$c0,$20,$90,$07	; $d1fc (*)
    335  0204		       a9 00 85 91*	      .byte.b	$a9,$00,$85,$91,$4c,$b4,$d2,$c0	; $d204 (*)
    336  020c		       09 90 f5 a9*	      .byte.b	$09,$90,$f5,$a9,$e0,$25,$91,$09	; $d20c (*)
    337  0214		       42 85 91 4c*	      .byte.b	$42,$85,$91,$4c,$b4,$d2,$a5,$cf	; $d214 (*)
    338  021c		       c9 3a 90 04*	      .byte.b	$c9,$3a,$90,$04,$a2,$07,$d0,$0c	; $d21c (*)
    339  0224		       a5 c9 c9 4c*	      .byte.b	$a5,$c9,$c9,$4c,$b0,$04,$a2,$05	; $d224 (*)
    340  022c		       d0 02 a2 0d*	      .byte.b	$d0,$02,$a2,$0d,$a9,$40,$85,$93	; $d22c (*)
    341  0234		       a5 83 29 1f*	      .byte.b	$a5,$83,$29,$1f,$c9,$02,$b0,$02	; $d234 (*)
    342  023c		       a2 0e 20 43*	      .byte.b	$a2,$0e,$20,$43,$dd,$b0,$04,$8a	; $d23c (*)
    343  0244		       20 e9 dc 4c*	      .byte.b	$20,$e9,$dc,$4c,$b4,$d2,$24,$33	; $d244 (*)
    344  024c		       30 20 a5 c9*	      .byte.b	$30,$20,$a5,$c9,$c9,$50,$b0,$0e	; $d24c (*)
    345  0254		       c6 c9 26 b2*	      .byte.b	$c6,$c9,$26,$b2,$18,$66,$b2,$a9	; $d254 (*)
    346  025c		       00 85 91 4c*	      .byte.b	$00,$85,$91,$4c,$b4,$d2,$a2,$06	; $d25c (*)
    347  0264		       a5 83 c9 40*	      .byte.b	$a5,$83,$c9,$40,$b0,$d4,$a2,$07	; $d264 (*)
    348  026c		       d0 d0 a4 cf*	      .byte.b	$d0,$d0,$a4,$cf,$c0,$44,$90,$0a	; $d26c (*)
    349  0274		       a9 e0 25 91*	      .byte.b	$a9,$e0,$25,$91,$09,$0b,$85,$91	; $d274 (*)
    350  027c		       d0 e1 c0 20*	      .byte.b	$d0,$e1,$c0,$20,$b0,$d9,$c0,$0b	; $d27c (*)
    351  0284		       90 d5 a9 e0*	      .byte.b	$90,$d5,$a9,$e0,$25,$91,$09,$41	; $d284 (*)
    352  028c		       d0 ec e6 c9*	      .byte.b	$d0,$ec,$e6,$c9,$d0,$22,$a5,$cf	; $d28c (*)
    353  0294		       c9 3f 90 12*	      .byte.b	$c9,$3f,$90,$12,$a9,$0a,$20,$e9	; $d294 (*)
    354  029c		       dc 90 15 66*	      .byte.b	$dc,$90,$15,$66,$b1,$38,$26,$b1	; $d29c (*)
    355  02a4		       a9 42 85 df*	      .byte.b	$a9,$42,$85,$df,$d0,$0a,$c9,$16	; $d2a4 (*)
    356  02ac		       90 04 c9 1f*	      .byte.b	$90,$04,$c9,$1f,$90,$02,$c6,$c9	; $d2ac (*)
    357  02b4		       a5 81 0a aa*	      .byte.b	$a5,$81,$0a,$aa,$24,$33,$10,$09	; $d2b4 (*)
    358  02bc		       bd b6 dc 48*	      .byte.b	$bd,$b6,$dc,$48,$bd,$b5,$dc,$48	; $d2bc (*)
    359  02c4		       60 bd d0 dc*	      .byte.b	$60,$bd,$d0,$dc,$48,$bd,$cf,$dc	; $d2c4 (*)
    360  02cc		       48 60		      .byte.b	$48,$60	; $d2cc (*)
    361  02ce
    362  02ce				   Ld2ce
    363  02ce		       a5 df		      lda	ram_DF	;3	    *
    364  02d0		       85 eb		      sta	ram_EB	;3	    *
    365  02d2		       a5 cf		      lda	indy_y	;3	    *
    366  02d4		       85 ec		      sta	ram_EC	;3	    *
    367  02d6		       a5 c9		      lda	indy_x	;3	    *
    368  02d8		       85 ed		      sta	ram_ED	;3	    *
    369  02da		       a9 05		      lda	#$05	;2	    *
    370  02dc		       85 81		      sta	room_num	;3	    *
    371  02de		       20 78 d8 	      jsr	Ld878	;6	    *
    372  02e1		       a9 05		      lda	#$05	;2	    *
    373  02e3		       85 cf		      sta	indy_y	;3	    *
    374  02e5		       a9 50		      lda	#$50	;2	    *
    375  02e7		       85 c9		      sta	indy_x	;3	    *
    376  02e9		       ba		      tsx		;2	    *
    377  02ea		       e0 fe		      cpx	#$fe	;2	    *
    378  02ec		       b0 01		      bcs	Ld2ef	;2/3	    *
    379  02ee		       60		      rts		;6   =  51 *
    380  02ef
    381  02ef				   Ld2ef
    382  02ef		       4c 74 d3 	      jmp	Ld374	;3   =   3 *
    383  02f2
    384  02f2		       24 b3 30 f9*	      .byte.b	$24,$b3,$30,$f9,$a9,$50,$85,$eb	; $d2f2 (*)
    385  02fa		       a9 41 85 ec*	      .byte.b	$a9,$41,$85,$ec,$a9,$4c,$d0,$d6	; $d2fa (*)
    386  0302		       a4 c9 c0 2c*	      .byte.b	$a4,$c9,$c0,$2c,$90,$12,$c0,$6b	; $d302 (*)
    387  030a		       b0 10 a4 cf*	      .byte.b	$b0,$10,$a4,$cf,$c8,$c0,$1e,$90	; $d30a (*)
    388  0312		       02 88 88 84*	      .byte.b	$02,$88,$88,$84,$cf,$4c,$64,$d3	; $d312 (*)
    389  031a		       c8 c8 88 84*	      .byte.b	$c8,$c8,$88,$84,$c9,$d0,$43,$a9	; $d31a (*)
    390  0322		       02 25 b1 f0*	      .byte.b	$02,$25,$b1,$f0,$0a,$a5,$cf,$c9	; $d322 (*)
    391  032a		       12 90 04 c9*	      .byte.b	$12,$90,$04,$c9,$24,$90,$39,$c6	; $d32a (*)
    392  0332		       c9 d0 2f a2*	      .byte.b	$c9,$d0,$2f,$a2,$1a,$a5,$c9,$c9	; $d332 (*)
    393  033a		       4c 90 02 a2*	      .byte.b	$4c,$90,$02,$a2,$7d,$86,$c9,$a2	; $d33a (*)
    394  0342		       40 86 cf a2*	      .byte.b	$40,$86,$cf,$a2,$ff,$86,$e5,$a2	; $d342 (*)
    395  034a		       01 86 e6 86*	      .byte.b	$01,$86,$e6,$86,$e7,$86,$e8,$86	; $d34a (*)
    396  0352		       e9 86 ea d0*	      .byte.b	$e9,$86,$ea,$d0,$0d,$a5,$92,$29	; $d352 (*)
    397  035a		       0f a8 b9 d5*	      .byte.b	$0f,$a8,$b9,$d5,$df,$a2,$01,$20	; $d35a (*)
    398  0362		       c0 df a9 05*	      .byte.b	$c0,$df,$a9,$05,$85,$a2,$d0,$0a	; $d362 (*)
    399  036a		       26 8a 38 b0*	      .byte.b	$26,$8a,$38,$b0,$03,$26,$8a,$18	; $d36a (*)
    400  0372		       66 8a		      .byte.b	$66,$8a	; $d372 (*)
    401  0374
    402  0374				   Ld374
    403  0374		       24 30		      bit	CXM0P|$30	;3	    *
    404  0376		       10 1e		      bpl	Ld396	;2/3	    *
    405  0378		       a6 81		      ldx	room_num	;3	    *
    406  037a		       e0 07		      cpx	#$07	;2	    *
    407  037c		       f0 08		      beq	Ld386	;2/3	    *
    408  037e		       90 16		      bcc	Ld396	;2/3	    *
    409  0380		       a9 80		      lda	#$80	;2	    *
    410  0382		       85 9d		      sta	ram_9D	;3	    *
    411  0384		       d0 0a		      bne	Ld390	;2/3 =  21 *
    412  0386				   Ld386
    413  0386		       26 8a		      rol	ram_8A	;5	    *
    414  0388		       38		      sec		;2	    *
    415  0389		       66 8a		      ror	ram_8A	;5	    *
    416  038b		       26 b6		      rol	ram_B6	;5	    *
    417  038d		       38		      sec		;2	    *
    418  038e		       66 b6		      ror	ram_B6	;5   =  24 *
    419  0390				   Ld390
    420  0390		       a9 7f		      lda	#$7f	;2	    *
    421  0392		       85 8e		      sta	ram_8E	;3	    *
    422  0394		       85 d0		      sta	ram_D0	;3   =   8 *
    423  0396				   Ld396
    424  0396		       24 9a		      bit	ram_9A	;3	    *
    425  0398		       10 3e		      bpl	Ld3d8	;2/3	    *
    426  039a		       70 0c		      bvs	Ld3a8	;2/3	    *
    427  039c		       a5 83		      lda	time_of_day	;3	    *
    428  039e		       c5 9b		      cmp	ram_9B	;3	    *
    429  03a0		       d0 36		      bne	Ld3d8	;2/3	    *
    430  03a2		       a9 a0		      lda	#$a0	;2	    *
    431  03a4		       85 d1		      sta	ram_D1	;3	    *
    432  03a6		       85 9d		      sta	ram_9D	;3   =  23 *
    433  03a8				   Ld3a8
    434  03a8		       46 9a		      lsr	ram_9A	;5	    *
    435  03aa		       90 28		      bcc	Ld3d4	;2/3	    *
    436  03ac		       a9 02		      lda	#$02	;2	    *
    437  03ae		       85 a5		      sta	grenade_used	;3	    *
    438  03b0		       05 b1		      ora	ram_B1	;3	    *
    439  03b2		       85 b1		      sta	ram_B1	;3	    *
    440  03b4		       a2 02		      ldx	#$02	;2	    *
    441  03b6		       e4 81		      cpx	room_num	;3	    *
    442  03b8		       d0 03		      bne	Ld3bd	;2/3	    *
    443  03ba		       20 78 d8 	      jsr	Ld878	;6   =  31 *
    444  03bd				   Ld3bd
    445  03bd		       a5 b5		      lda	ram_B5	;3	    *
    446  03bf		       29 0f		      and	#$0f	;2	    *
    447  03c1		       f0 11		      beq	Ld3d4	;2/3	    *
    448  03c3		       a5 b5		      lda	ram_B5	;3	    *
    449  03c5		       29 f0		      and	#$f0	;2	    *
    450  03c7		       09 01		      ora	#$01	;2	    *
    451  03c9		       85 b5		      sta	ram_B5	;3	    *
    452  03cb		       a2 02		      ldx	#$02	;2	    *
    453  03cd		       e4 81		      cpx	room_num	;3	    *
    454  03cf		       d0 03		      bne	Ld3d4	;2/3	    *
    455  03d1		       20 78 d8 	      jsr	Ld878	;6   =  30 *
    456  03d4				   Ld3d4
    457  03d4		       38		      sec		;2	    *
    458  03d5		       20 10 da 	      jsr	Lda10	;6   =   8 *
    459  03d8				   Ld3d8
    460  03d8		       ad 84 02 	      lda	INTIM	;4	   
    461  03db		       d0 fb		      bne	Ld3d8	;2/3 =   6
    462  03dd				   Ld3dd
    463  03dd		       a9 02		      lda	#$02	;2	   
    464  03df		       85 02		      sta	WSYNC	;3   =   5
    465  03e1							;---------------------------------------
    466  03e1		       85 00		      sta	VSYNC	;3	   
    467  03e3		       a9 50		      lda	#$50	;2	   
    468  03e5		       c5 d1		      cmp	ram_D1	;3	   
    469  03e7		       b0 02		      bcs	Ld3eb	;2/3	   
    470  03e9		       85 cb		      sta	ram_CB	;3   =  13 *
    471  03eb				   Ld3eb
    472  03eb		       e6 82		      inc	frame_counter	;Up the frame counter by 1	  
    473  03ed		       a9 3f		      lda	#$3f	;    
    474  03ef		       25 82		      and	frame_counter	;Every 63 frames (?)	 
    475  03f1		       d0 08		      bne	Ld3fb	;     
    476  03f3		       e6 83		      inc	time_of_day	;Increse the time of day      
    477  03f5		       a5 a1		      lda	ram_A1	;3	   
    478  03f7		       10 02		      bpl	Ld3fb	;2/3	   
    479  03f9		       c6 a1		      dec	ram_A1	;5   =  27 *
    480  03fb				   Ld3fb
    481  03fb		       85 02		      sta	WSYNC	;3   =   3
    482  03fd							;---------------------------------------
    483  03fd		       24 9c		      bit	ram_9C	;3	   
    484  03ff		       10 08		      bpl	frame_start	;2/3	   
    485  0401		       6e 82 02 	      ror	SWCHB	;6	    *
    486  0404		       b0 03		      bcs	frame_start	;2/3	    *
    487  0406		       4c 68 dd 	      jmp	game_start	;3   =  16 *
    488  0409
    489  0409				   frame_start
    490  0409		       85 02		      sta	WSYNC	;Wait for first Sync 
    491  040b							;---------------------------------------
    492  040b		       a9 00		      lda	#$00	;Load A for VSYNC pause    
    493  040d		       a2 2c		      ldx	#$2c	;Load Timer for 
    494  040f		       85 02		      sta	WSYNC	;3   =   7
    495  0411							;---------------------------------------
    496  0411		       85 00		      sta	VSYNC	;3	   
    497  0413		       8e 96 02 	      stx	TIM64T	;4	   
    498  0416		       a6 9d		      ldx	ram_9D	;3	   
    499  0418		       e8		      inx		;2	   
    500  0419		       d0 0f		      bne	Ld42a	;2/3	   
    501  041b		       86 9d		      stx	ram_9D	;3	    *
    502  041d		       20 db dd 	      jsr	Ldddb	;6	    *
    503  0420		       a9 0d		      lda	#$0d	;2	    *
    504  0422		       85 81		      sta	room_num	;3	    *
    505  0424		       20 78 d8 	      jsr	Ld878	;6   =  34 *
    506  0427				   Ld427
    507  0427		       4c 0d d8 	      jmp	Ld80d	;3   =   3
    508  042a
    509  042a				   Ld42a
    510  042a		       a5 81		      lda	room_num	;3	   
    511  042c		       c9 0d		      cmp	#$0d	;2	   
    512  042e		       d0 52		      bne	Ld482	;2/3	   
    513  0430		       a9 9c		      lda	#$9c	;2	   
    514  0432		       85 a3		      sta	ram_A3	;3	   
    515  0434		       a4 aa		      ldy	yar_found	;3	   
    516  0436		       f0 12		      beq	Ld44a	;2/3	   
    517  0438		       24 9c		      bit	ram_9C	;3	    *
    518  043a		       30 0e		      bmi	Ld44a	;2/3	    *
    519  043c		       a2 ff		      ldx	#$ff	;2	    *
    520  043e		       86 b8		      stx	inv_slot1_hi	;3	    *
    521  0440		       86 ba		      stx	inv_slot2_hi	;3	    *
    522  0442		       a9 46		      lda	#$46	;2	    *
    523  0444		       85 b7		      sta	inv_slot1_lo	;3	    *
    524  0446		       a9 01		      lda	#$01	;2	    *
    525  0448		       85 b9		      sta	inv_slot2_lo	;3   =  40 *
    526  044a				   Ld44a
    527  044a		       a4 cf		      ldy	indy_y	;3	   
    528  044c		       c0 7c		      cpy	#$7c	;2	   
    529  044e		       b0 15		      bcs	Ld465	;2/3	   
    530  0450		       c4 9e		      cpy	ram_9E	;3	   
    531  0452		       90 07		      bcc	Ld45b	;2/3	   
    532  0454		       24 3d		      bit	INPT5|$30	;3	    *
    533  0456		       30 cf		      bmi	Ld427	;2/3	    *
    534  0458		       4c 68 dd 	      jmp	game_start	;3   =  20 *
    535  045b
    536  045b				   Ld45b
    537  045b		       a5 82		      lda	frame_counter	;3	   
    538  045d		       6a		      ror		;2	   
    539  045e		       90 c7		      bcc	Ld427	;2/3	   
    540  0460		       c8		      iny		;2	   
    541  0461		       84 cf		      sty	indy_y	;3	   
    542  0463		       d0 c2		      bne	Ld427	;2/3 =  14
    543  0465				   Ld465
    544  0465		       24 9c		      bit	ram_9C	;3	    *
    545  0467		       30 04		      bmi	Ld46d	;2/3	    *
    546  0469		       a9 0e		      lda	#$0e	;2	    *
    547  046b		       85 a2		      sta	ram_A2	;3   =  10 *
    548  046d				   Ld46d
    549  046d		       a9 80		      lda	#$80	;2	    *
    550  046f		       85 9c		      sta	ram_9C	;3	    *
    551  0471		       24 3d		      bit	INPT5|$30	;3	    *
    552  0473		       30 b2		      bmi	Ld427	;2/3	    *
    553  0475		       a5 82		      lda	frame_counter	;3	    *
    554  0477		       29 0f		      and	#$0f	;2	    *
    555  0479		       d0 02		      bne	Ld47d	;2/3	    *
    556  047b		       a9 05		      lda	#$05	;2   =  19 *
    557  047d				   Ld47d
    558  047d		       85 8c		      sta	ram_8C	;3	    *
    559  047f		       4c a6 dd 	      jmp	reset_vars	;3   =   6 *
    560  0482
    561  0482				   Ld482
    562  0482		       24 93		      bit	ram_93	;3	    *
    563  0484		       70 03		      bvs	Ld489	;2/3 =   5 *
    564  0486				   Ld486
    565  0486		       4c 1c d5 	      jmp	Ld51c	;3   =   3 *
    566  0489
    567  0489				   Ld489
    568  0489		       a5 82		      lda	frame_counter	;3	    *
    569  048b		       29 03		      and	#$03	;2	    *
    570  048d		       d0 72		      bne	Ld501	;2/3!	    *
    571  048f		       a6 dc		      ldx	snake_y	;3	    *
    572  0491		       e0 60		      cpx	#$60	;2	    *
    573  0493		       90 10		      bcc	Ld4a5	;2/3	    *
    574  0495		       24 9d		      bit	ram_9D	;3	    *
    575  0497		       30 ed		      bmi	Ld486	;2/3	    *
    576  0499		       a2 00		      ldx	#$00	;2	    *
    577  049b		       a5 c9		      lda	indy_x	;3	    *
    578  049d		       c9 20		      cmp	#$20	;2	    *
    579  049f		       b0 02		      bcs	Ld4a3	;2/3	    *
    580  04a1		       a9 20		      lda	#$20	;2   =  30 *
    581  04a3				   Ld4a3
    582  04a3		       85 cc		      sta	ram_CC	;3   =   3 *
    583  04a5				   Ld4a5
    584  04a5		       e8		      inx		;2	    *
    585  04a6		       86 dc		      stx	snake_y	;3	    *
    586  04a8		       8a		      txa		;2	    *
    587  04a9		       38		      sec		;2	    *
    588  04aa		       e9 07		      sbc	#$07	;2	    *
    589  04ac		       10 02		      bpl	Ld4b0	;2/3	    *
    590  04ae		       a9 00		      lda	#$00	;2   =  15 *
    591  04b0				   Ld4b0
    592  04b0		       85 d2		      sta	ram_D2	;3	    *
    593  04b2		       29 f8		      and	#$f8	;2	    *
    594  04b4		       c5 d5		      cmp	ram_D5	;3	    *
    595  04b6		       f0 49		      beq	Ld501	;2/3!	    *
    596  04b8		       85 d5		      sta	ram_D5	;3	    *
    597  04ba		       a5 d4		      lda	ram_D4	;3	    *
    598  04bc		       29 03		      and	#$03	;2	    *
    599  04be		       aa		      tax		;2	    *
    600  04bf		       a5 d4		      lda	ram_D4	;3	    *
    601  04c1		       4a		      lsr		;2	    *
    602  04c2		       4a		      lsr		;2	    *
    603  04c3		       a8		      tay		;2	    *
    604  04c4		       bd ff db 	      lda	Ldbff,x	;4	    *
    605  04c7		       18		      clc		;2	    *
    606  04c8		       79 ff db 	      adc	Ldbff,y	;4	    *
    607  04cb		       18		      clc		;2	    *
    608  04cc		       65 cc		      adc	ram_CC	;3	    *
    609  04ce		       a2 00		      ldx	#$00	;2	    *
    610  04d0		       c9 87		      cmp	#$87	;2	    *
    611  04d2		       b0 0e		      bcs	Ld4e2	;2/3	    *
    612  04d4		       c9 18		      cmp	#$18	;2	    *
    613  04d6		       90 06		      bcc	Ld4de	;2/3	    *
    614  04d8		       e5 c9		      sbc	indy_x	;3	    *
    615  04da		       e9 03		      sbc	#$03	;2	    *
    616  04dc		       10 04		      bpl	Ld4e2	;2/3 =  61 *
    617  04de				   Ld4de
    618  04de		       e8		      inx		;2	    *
    619  04df		       e8		      inx		;2	    *
    620  04e0		       49 ff		      eor	#$ff	;2   =   6 *
    621  04e2				   Ld4e2
    622  04e2		       c9 09		      cmp	#$09	;2	    *
    623  04e4		       90 01		      bcc	Ld4e7	;2/3	    *
    624  04e6		       e8		      inx		;2   =   6 *
    625  04e7				   Ld4e7
    626  04e7		       8a		      txa		;2	    *
    627  04e8		       0a		      asl		;2	    *
    628  04e9		       0a		      asl		;2	    *
    629  04ea		       85 84		      sta	ram_84	;3	    *
    630  04ec		       a5 d4		      lda	ram_D4	;3	    *
    631  04ee		       29 03		      and	#$03	;2	    *
    632  04f0		       aa		      tax		;2	    *
    633  04f1		       bd ff db 	      lda	Ldbff,x	;4	    *
    634  04f4		       18		      clc		;2	    *
    635  04f5		       65 cc		      adc	ram_CC	;3	    *
    636  04f7		       85 cc		      sta	ram_CC	;3	    *
    637  04f9		       a5 d4		      lda	ram_D4	;3	    *
    638  04fb		       4a		      lsr		;2	    *
    639  04fc		       4a		      lsr		;2	    *
    640  04fd		       05 84		      ora	ram_84	;3	    *
    641  04ff		       85 d4		      sta	ram_D4	;3   =  41 *
    642  0501				   Ld501
    643  0501		       a5 d4		      lda	ram_D4	;3	    *
    644  0503		       29 03		      and	#$03	;2	    *
    645  0505		       aa		      tax		;2	    *
    646  0506		       bd fb db 	      lda	Ldbfb,x	;4	    *
    647  0509		       85 d6		      sta	ram_D6	;3	    *
    648  050b		       a9 fa		      lda	#$fa	;2	    *
    649  050d		       85 d7		      sta	ram_D7	;3	    *
    650  050f		       a5 d4		      lda	ram_D4	;3	    *
    651  0511		       4a		      lsr		;2	    *
    652  0512		       4a		      lsr		;2	    *
    653  0513		       aa		      tax		;2	    *
    654  0514		       bd fb db 	      lda	Ldbfb,x	;4	    *
    655  0517		       38		      sec		;2	    *
    656  0518		       e9 08		      sbc	#$08	;2	    *
    657  051a		       85 d8		      sta	ram_D8	;3   =  39 *
    658  051c				   Ld51c
    659  051c		       24 9d		      bit	ram_9D	;3	    *
    660  051e		       10 03		      bpl	Ld523	;2/3	    *
    661  0520		       4c 02 d8 	      jmp	Ld802	;3   =   8 *
    662  0523
    663  0523				   Ld523
    664  0523		       24 a1		      bit	ram_A1	;3	    *
    665  0525		       10 03		      bpl	Ld52a	;2/3	    *
    666  0527		       4c 8c d7 	      jmp	Ld78c	;3   =   8 *
    667  052a
    668  052a				   Ld52a
    669  052a		       a5 82		      lda	frame_counter	;3	    *
    670  052c		       6a		      ror		;2	    *
    671  052d		       90 03		      bcc	Ld532	;2/3	    *
    672  052f		       4c 27 d6 	      jmp	Ld627	;3   =  10 *
    673  0532
    674  0532				   Ld532
    675  0532		       a6 81		      ldx	room_num	;3	    *
    676  0534		       e0 05		      cpx	#$05	;2	    *
    677  0536		       f0 41		      beq	Ld579	;2/3	    *
    678  0538		       24 8d		      bit	ram_8D	;3	    *
    679  053a		       50 32		      bvc	Ld56e	;2/3	    *
    680  053c		       a6 cb		      ldx	ram_CB	;3	    *
    681  053e		       8a		      txa		;2	    *
    682  053f		       38		      sec		;2	    *
    683  0540		       e5 c9		      sbc	indy_x	;3	    *
    684  0542		       a8		      tay		;2	    *
    685  0543		       ad 80 02 	      lda	SWCHA	;4	    *
    686  0546		       6a		      ror		;2	    *
    687  0547		       90 12		      bcc	Ld55b	;2/3	    *
    688  0549		       6a		      ror		;2	    *
    689  054a		       b0 2d		      bcs	Ld579	;2/3	    *
    690  054c		       c0 09		      cpy	#$09	;2	    *
    691  054e		       90 29		      bcc	Ld579	;2/3	    *
    692  0550		       98		      tya		;2	    *
    693  0551		       10 03		      bpl	Ld556	;2/3 =  44 *
    694  0553				   Ld553
    695  0553		       e8		      inx		;2	    *
    696  0554		       d0 01		      bne	Ld557	;2/3 =   4 *
    697  0556				   Ld556
    698  0556		       ca		      dex		;2   =   2 *
    699  0557				   Ld557
    700  0557		       86 cb		      stx	ram_CB	;3	    *
    701  0559		       d0 1e		      bne	Ld579	;2/3 =   5 *
    702  055b				   Ld55b
    703  055b		       e0 75		      cpx	#$75	;2	    *
    704  055d		       b0 1a		      bcs	Ld579	;2/3	    *
    705  055f		       e0 1a		      cpx	#$1a	;2	    *
    706  0561		       90 16		      bcc	Ld579	;2/3	    *
    707  0563		       88		      dey		;2	    *
    708  0564		       88		      dey		;2	    *
    709  0565		       c0 07		      cpy	#$07	;2	    *
    710  0567		       90 10		      bcc	Ld579	;2/3	    *
    711  0569		       98		      tya		;2	    *
    712  056a		       10 e7		      bpl	Ld553	;2/3	    *
    713  056c		       30 e8		      bmi	Ld556	;2/3 =  22 *
    714  056e				   Ld56e
    715  056e		       24 b4		      bit	ram_B4	;3	    *
    716  0570		       30 07		      bmi	Ld579	;2/3	    *
    717  0572		       24 8a		      bit	ram_8A	;3	    *
    718  0574		       10 06		      bpl	Ld57c	;2/3	    *
    719  0576		       6a		      ror		;2	    *
    720  0577		       90 03		      bcc	Ld57c	;2/3 =  14 *
    721  0579				   Ld579
    722  0579		       4c e0 d5 	      jmp	Ld5e0	;3   =   3 *
    723  057c
    724  057c				   Ld57c
    725  057c		       a2 01		      ldx	#$01	;2	    *
    726  057e		       ad 80 02 	      lda	SWCHA	;4	    *
    727  0581		       85 85		      sta	ram_85	;3	    *
    728  0583		       29 0f		      and	#$0f	;2	    *
    729  0585		       c9 0f		      cmp	#$0f	;2	    *
    730  0587		       f0 f0		      beq	Ld579	;2/3	    *
    731  0589		       85 92		      sta	indy_dir	;3	    *
    732  058b		       20 c0 df 	      jsr	move_enemy	;6	    *
    733  058e		       a6 81		      ldx	room_num	;3	    *
    734  0590		       a0 00		      ldy	#$00	;2	    *
    735  0592		       84 84		      sty	ram_84	;3	    *
    736  0594		       f0 03		      beq	Ld599	;2/3 =  34 *
    737  0596				   Ld596
    738  0596		       aa		      tax		;2	    *
    739  0597		       e6 84		      inc	ram_84	;5   =   7 *
    740  0599				   Ld599
    741  0599		       a5 c9		      lda	indy_x	;3	    *
    742  059b		       48		      pha		;3	    *
    743  059c		       a5 cf		      lda	indy_y	;3	    *
    744  059e		       a4 84		      ldy	ram_84	;3	    *
    745  05a0		       c0 02		      cpy	#$02	;2	    *
    746  05a2		       b0 08		      bcs	Ld5ac	;2/3	    *
    747  05a4		       85 86		      sta	ram_86	;3	    *
    748  05a6		       68		      pla		;4	    *
    749  05a7		       85 87		      sta	ram_87	;3	    *
    750  05a9		       4c b1 d5 	      jmp	Ld5b1	;3   =  29 *
    751  05ac
    752  05ac				   Ld5ac
    753  05ac		       85 87		      sta	ram_87	;3	    *
    754  05ae		       68		      pla		;4	    *
    755  05af		       85 86		      sta	ram_86	;3   =  10 *
    756  05b1				   Ld5b1
    757  05b1		       66 85		      ror	ram_85	;5	    *
    758  05b3		       b0 1c		      bcs	Ld5d1	;2/3	    *
    759  05b5		       20 7c d9 	      jsr	Ld97c	;6	    *
    760  05b8		       b0 21		      bcs	Ld5db	;2/3	    *
    761  05ba		       50 15		      bvc	Ld5d1	;2/3	    *
    762  05bc		       a4 84		      ldy	ram_84	;3	    *
    763  05be		       b9 6c df 	      lda	Ldf6c,y	;4	    *
    764  05c1		       c0 02		      cpy	#$02	;2	    *
    765  05c3		       b0 07		      bcs	Ld5cc	;2/3	    *
    766  05c5		       65 cf		      adc	indy_y	;3	    *
    767  05c7		       85 cf		      sta	indy_y	;3	    *
    768  05c9		       4c d1 d5 	      jmp	Ld5d1	;3   =  37 *
    769  05cc
    770  05cc				   Ld5cc
    771  05cc		       18		      clc		;2	    *
    772  05cd		       65 c9		      adc	indy_x	;3	    *
    773  05cf		       85 c9		      sta	indy_x	;3   =   8 *
    774  05d1				   Ld5d1
    775  05d1		       8a		      txa		;2	    *
    776  05d2		       18		      clc		;2	    *
    777  05d3		       69 0d		      adc	#$0d	;2	    *
    778  05d5		       c9 34		      cmp	#$34	;2	    *
    779  05d7		       90 bd		      bcc	Ld596	;2/3	    *
    780  05d9		       b0 05		      bcs	Ld5e0	;2/3 =  12 *
    781  05db				   Ld5db
    782  05db		       84 81		      sty	room_num	;3	    *
    783  05dd		       20 78 d8 	      jsr	Ld878	;6   =   9 *
    784  05e0				   Ld5e0
    785  05e0		       24 3c		      bit	INPT4|$30	;3	    *
    786  05e2		       30 11		      bmi	Ld5f5	;2/3	    *
    787  05e4		       24 9a		      bit	ram_9A	;3	    *
    788  05e6		       30 3c		      bmi	Ld624	;2/3!	    *
    789  05e8		       a5 8a		      lda	ram_8A	;3	    *
    790  05ea		       6a		      ror		;2	    *
    791  05eb		       b0 0d		      bcs	Ld5fa	;2/3	    *
    792  05ed		       38		      sec		;2	    *
    793  05ee		       20 10 da 	      jsr	Lda10	;6	    *
    794  05f1		       e6 8a		      inc	ram_8A	;5	    *
    795  05f3		       d0 05		      bne	Ld5fa	;2/3 =  32 *
    796  05f5				   Ld5f5
    797  05f5		       66 8a		      ror	ram_8A	;5	    *
    798  05f7		       18		      clc		;2	    *
    799  05f8		       26 8a		      rol	ram_8A	;5   =  12 *
    800  05fa				   Ld5fa
    801  05fa		       a5 91		      lda	ram_91	;3	    *
    802  05fc		       10 26		      bpl	Ld624	;2/3!	    *
    803  05fe		       29 1f		      and	#$1f	;2	    *
    804  0600		       c9 01		      cmp	#$01	;2	    *
    805  0602		       d0 08		      bne	Ld60c	;2/3	    *
    806  0604		       e6 a0		      inc	num_bullets	;5	    *
    807  0606		       e6 a0		      inc	num_bullets	;5	    *
    808  0608		       e6 a0		      inc	num_bullets	;5	    *
    809  060a		       d0 14		      bne	Ld620	;2/3 =  28 *
    810  060c				   Ld60c
    811  060c		       c9 0b		      cmp	#$0b	;2	    *
    812  060e		       d0 0d		      bne	Ld61d	;2/3	    *
    813  0610		       66 b2		      ror	ram_B2	;5	    *
    814  0612		       38		      sec		;2	    *
    815  0613		       26 b2		      rol	ram_B2	;5	    *
    816  0615		       a2 45		      ldx	#$45	;2	    *
    817  0617		       86 df		      stx	ram_DF	;3	    *
    818  0619		       a2 7f		      ldx	#$7f	;2	    *
    819  061b		       86 d0		      stx	ram_D0	;3   =  26 *
    820  061d				   Ld61d
    821  061d		       20 e9 dc 	      jsr	Ldce9	;6   =   6 *
    822  0620				   Ld620
    823  0620		       a9 00		      lda	#$00	;2	    *
    824  0622		       85 91		      sta	ram_91	;3   =   5 *
    825  0624				   Ld624
    826  0624		       4c 77 d7 	      jmp	Ld777	;3   =   3 *
    827  0627
    828  0627				   Ld627
    829  0627		       24 9a		      bit	ram_9A	;3	    *
    830  0629		       30 f9		      bmi	Ld624	;2/3	    *
    831  062b		       24 3d		      bit	INPT5|$30	;3	    *
    832  062d		       10 09		      bpl	Ld638	;2/3	    *
    833  062f		       a9 fd		      lda	#$fd	;2	    *
    834  0631		       25 8a		      and	ram_8A	;3	    *
    835  0633		       85 8a		      sta	ram_8A	;3	    *
    836  0635		       4c 77 d7 	      jmp	Ld777	;3   =  21 *
    837  0638
    838  0638				   Ld638
    839  0638		       a9 02		      lda	#$02	;2	    *
    840  063a		       24 8a		      bit	ram_8A	;3	    *
    841  063c		       d0 58		      bne	Ld696	;2/3	    *
    842  063e		       05 8a		      ora	ram_8A	;3	    *
    843  0640		       85 8a		      sta	ram_8A	;3	    *
    844  0642		       a6 c5		      ldx	current_inv	;3	    *
    845  0644		       e0 05		      cpx	#$05	;2	    *
    846  0646		       f0 04		      beq	Ld64c	;2/3	    *
    847  0648		       e0 06		      cpx	#$06	;2	    *
    848  064a		       d0 25		      bne	Ld671	;2/3 =  24 *
    849  064c				   Ld64c
    850  064c		       a6 cf		      ldx	indy_y	;3	    *
    851  064e		       86 d1		      stx	ram_D1	;3	    *
    852  0650		       a4 c9		      ldy	indy_x	;3	    *
    853  0652		       84 cb		      sty	ram_CB	;3	    *
    854  0654		       a5 83		      lda	time_of_day	;3	    *
    855  0656		       69 04		      adc	#$04	;2	    *
    856  0658		       85 9b		      sta	ram_9B	;3	    *
    857  065a		       a9 80		      lda	#$80	;2	    *
    858  065c		       e0 35		      cpx	#$35	;2	    *
    859  065e		       b0 0c		      bcs	Ld66c	;2/3	    *
    860  0660		       c0 64		      cpy	#$64	;2	    *
    861  0662		       90 08		      bcc	Ld66c	;2/3	    *
    862  0664		       a6 81		      ldx	room_num	;3	    *
    863  0666		       e0 02		      cpx	#$02	;2	    *
    864  0668		       d0 02		      bne	Ld66c	;2/3	    *
    865  066a		       09 01		      ora	#$01	;2   =  39 *
    866  066c				   Ld66c
    867  066c		       85 9a		      sta	ram_9A	;3	    *
    868  066e		       4c 77 d7 	      jmp	Ld777	;3   =   6 *
    869  0671
    870  0671				   Ld671
    871  0671		       e0 03		      cpx	#$03	;2	    *
    872  0673		       d0 16		      bne	Ld68b	;2/3	    *
    873  0675		       86 a8		      stx	parachute_used	;3	    *
    874  0677		       a5 b4		      lda	ram_B4	;3	    *
    875  0679		       30 1b		      bmi	Ld696	;2/3	    *
    876  067b		       09 80		      ora	#$80	;2	    *
    877  067d		       85 b4		      sta	ram_B4	;3	    *
    878  067f		       a5 cf		      lda	indy_y	;3	    *
    879  0681		       e9 06		      sbc	#$06	;2	    *
    880  0683		       10 02		      bpl	Ld687	;2/3	    *
    881  0685		       a9 01		      lda	#$01	;2   =  26 *
    882  0687				   Ld687
    883  0687		       85 cf		      sta	indy_y	;3	    *
    884  0689		       10 47		      bpl	Ld6d2	;2/3 =   5 *
    885  068b				   Ld68b
    886  068b		       24 8d		      bit	ram_8D	;3	    *
    887  068d		       50 46		      bvc	Ld6d5	;2/3	    *
    888  068f		       24 35		      bit	CXM1FB|$30	;3	    *
    889  0691		       30 06		      bmi	Ld699	;2/3	    *
    890  0693		       20 ce d2 	      jsr	Ld2ce	;6   =  16 *
    891  0696				   Ld696
    892  0696		       4c 77 d7 	      jmp	Ld777	;3   =   3 *
    893  0699
    894  0699				   Ld699
    895  0699		       a5 d1		      lda	ram_D1	;3	    *
    896  069b		       4a		      lsr		;2	    *
    897  069c		       38		      sec		;2	    *
    898  069d		       e9 06		      sbc	#$06	;2	    *
    899  069f		       18		      clc		;2	    *
    900  06a0		       65 df		      adc	ram_DF	;3	    *
    901  06a2		       4a		      lsr		;2	    *
    902  06a3		       4a		      lsr		;2	    *
    903  06a4		       4a		      lsr		;2	    *
    904  06a5		       4a		      lsr		;2	    *
    905  06a6		       c9 08		      cmp	#$08	;2	    *
    906  06a8		       90 02		      bcc	Ld6ac	;2/3	    *
    907  06aa		       a9 07		      lda	#$07	;2   =  28 *
    908  06ac				   Ld6ac
    909  06ac		       85 84		      sta	ram_84	;3	    *
    910  06ae		       a5 cb		      lda	ram_CB	;3	    *
    911  06b0		       38		      sec		;2	    *
    912  06b1		       e9 10		      sbc	#$10	;2	    *
    913  06b3		       29 60		      and	#$60	;2	    *
    914  06b5		       4a		      lsr		;2	    *
    915  06b6		       4a		      lsr		;2	    *
    916  06b7		       65 84		      adc	ram_84	;3	    *
    917  06b9		       a8		      tay		;2	    *
    918  06ba		       b9 7c df 	      lda	Ldf7c,y	;4	    *
    919  06bd		       85 8b		      sta	ram_8B	;3	    *
    920  06bf		       a6 d1		      ldx	ram_D1	;3	    *
    921  06c1		       ca		      dex		;2	    *
    922  06c2		       86 d1		      stx	ram_D1	;3	    *
    923  06c4		       86 cf		      stx	indy_y	;3	    *
    924  06c6		       a6 cb		      ldx	ram_CB	;3	    *
    925  06c8		       ca		      dex		;2	    *
    926  06c9		       ca		      dex		;2	    *
    927  06ca		       86 cb		      stx	ram_CB	;3	    *
    928  06cc		       86 c9		      stx	indy_x	;3	    *
    929  06ce		       a9 46		      lda	#$46	;2	    *
    930  06d0		       85 8d		      sta	ram_8D	;3   =  57 *
    931  06d2				   Ld6d2
    932  06d2		       4c 73 d7 	      jmp	Ld773	;3   =   3 *
    933  06d5
    934  06d5				   Ld6d5
    935  06d5		       e0 0b		      cpx	#$0b	;2	    *
    936  06d7		       d0 1e		      bne	Ld6f7	;2/3	    *
    937  06d9		       a5 cf		      lda	indy_y	;3	    *
    938  06db		       c9 41		      cmp	#$41	;2	    *
    939  06dd		       90 b7		      bcc	Ld696	;2/3	    *
    940  06df		       24 37		      bit	CXPPMM|$30	;3	    *
    941  06e1		       10 b3		      bpl	Ld696	;2/3	    *
    942  06e3		       e6 97		      inc	ram_97	;5	    *
    943  06e5		       d0 af		      bne	Ld696	;2/3	    *
    944  06e7		       a4 96		      ldy	ram_96	;3	    *
    945  06e9		       88		      dey		;2	    *
    946  06ea		       c0 54		      cpy	#$54	;2	    *
    947  06ec		       b0 01		      bcs	Ld6ef	;2/3	    *
    948  06ee		       c8		      iny		;2   =  34 *
    949  06ef				   Ld6ef
    950  06ef		       84 96		      sty	ram_96	;3	    *
    951  06f1		       a9 0a		      lda	#$0a	;2	    *
    952  06f3		       85 a7		      sta	shovel_used	;3	    *
    953  06f5		       d0 9f		      bne	Ld696	;2/3 =  10 *
    954  06f7				   Ld6f7
    955  06f7		       e0 10		      cpx	#$10	;2	    *
    956  06f9		       d0 23		      bne	Ld71e	;2/3!	    *
    957  06fb		       a6 81		      ldx	room_num	;3	    *
    958  06fd		       e0 00		      cpx	#$00	;2	    *
    959  06ff		       f0 95		      beq	Ld696	;2/3!	    *
    960  0701		       a9 09		      lda	#$09	;2	    *
    961  0703		       85 a9		      sta	ankh_used	;3	    *
    962  0705		       85 81		      sta	room_num	;3	    *
    963  0707		       20 78 d8 	      jsr	Ld878	;6	    *
    964  070a		       a9 4c		      lda	#$4c	;2	    *
    965  070c		       85 c9		      sta	indy_x	;3	    *
    966  070e		       85 cb		      sta	ram_CB	;3	    *
    967  0710		       a9 46		      lda	#$46	;2	    *
    968  0712		       85 cf		      sta	indy_y	;3	    *
    969  0714		       85 d1		      sta	ram_D1	;3	    *
    970  0716		       85 8d		      sta	ram_8D	;3	    *
    971  0718		       a9 1d		      lda	#$1d	;2	    *
    972  071a		       85 df		      sta	ram_DF	;3	    *
    973  071c		       d0 59		      bne	Ld777	;2/3 =  51 *
    974  071e				   Ld71e
    975  071e		       ad 80 02 	      lda	SWCHA	;4	    *
    976  0721		       29 0f		      and	#$0f	;2	    *
    977  0723		       c9 0f		      cmp	#$0f	;2	    *
    978  0725		       f0 50		      beq	Ld777	;2/3	    *
    979  0727		       e0 0d		      cpx	#$0d	;2	    *
    980  0729		       d0 1c		      bne	Ld747	;2/3	    *
    981  072b		       24 8f		      bit	ram_8F	;3	    *
    982  072d		       30 48		      bmi	Ld777	;2/3	    *
    983  072f		       a4 a0		      ldy	num_bullets	;3	    *
    984  0731		       30 44		      bmi	Ld777	;2/3	    *
    985  0733		       c6 a0		      dec	num_bullets	;5	    *
    986  0735		       09 80		      ora	#$80	;2	    *
    987  0737		       85 8f		      sta	ram_8F	;3	    *
    988  0739		       a5 cf		      lda	indy_y	;3	    *
    989  073b		       69 04		      adc	#$04	;2	    *
    990  073d		       85 d1		      sta	ram_D1	;3	    *
    991  073f		       a5 c9		      lda	indy_x	;3	    *
    992  0741		       69 04		      adc	#$04	;2	    *
    993  0743		       85 cb		      sta	ram_CB	;3	    *
    994  0745		       d0 2c		      bne	Ld773	;2/3 =  52 *
    995  0747				   Ld747
    996  0747		       e0 0a		      cpx	#$0a	;2	    *
    997  0749		       d0 2c		      bne	Ld777	;2/3	    *
    998  074b		       09 80		      ora	#$80	;2	    *
    999  074d		       85 8d		      sta	ram_8D	;3	    *
   1000  074f		       a0 04		      ldy	#$04	;2	    *
   1001  0751		       a2 05		      ldx	#$05	;2	    *
   1002  0753		       6a		      ror		;2	    *
   1003  0754		       b0 02		      bcs	Ld758	;2/3	    *
   1004  0756		       a2 fa		      ldx	#$fa	;2   =  19 *
   1005  0758				   Ld758
   1006  0758		       6a		      ror		;2	    *
   1007  0759		       b0 02		      bcs	Ld75d	;2/3	    *
   1008  075b		       a2 0f		      ldx	#$0f	;2   =   6 *
   1009  075d				   Ld75d
   1010  075d		       6a		      ror		;2	    *
   1011  075e		       b0 02		      bcs	Ld762	;2/3	    *
   1012  0760		       a0 f7		      ldy	#$f7	;2   =   6 *
   1013  0762				   Ld762
   1014  0762		       6a		      ror		;2	    *
   1015  0763		       b0 02		      bcs	Ld767	;2/3	    *
   1016  0765		       a0 10		      ldy	#$10	;2   =   6 *
   1017  0767				   Ld767
   1018  0767		       98		      tya		;2	    *
   1019  0768		       18		      clc		;2	    *
   1020  0769		       65 c9		      adc	indy_x	;3	    *
   1021  076b		       85 cb		      sta	ram_CB	;3	    *
   1022  076d		       8a		      txa		;2	    *
   1023  076e		       18		      clc		;2	    *
   1024  076f		       65 cf		      adc	indy_y	;3	    *
   1025  0771		       85 d1		      sta	ram_D1	;3   =  20 *
   1026  0773				   Ld773
   1027  0773		       a9 0f		      lda	#$0f	;2	    *
   1028  0775		       85 a3		      sta	ram_A3	;3   =   5 *
   1029  0777				   Ld777
   1030  0777		       24 b4		      bit	ram_B4	;3	    *
   1031  0779		       10 08		      bpl	Ld783	;2/3	    *
   1032  077b		       a9 63		      lda	#$63	;2	    *
   1033  077d		       85 d9		      sta	indy_anim	;3	    *
   1034  077f		       a9 0f		      lda	#$0f	;2	    *
   1035  0781		       d0 0f		      bne	Ld792	;2/3 =  14 *
   1036  0783				   Ld783
   1037  0783		       ad 80 02 	      lda	SWCHA	;4	    *
   1038  0786		       29 0f		      and	#$0f	;2	    *
   1039  0788		       c9 0f		      cmp	#$0f	;2	    *
   1040  078a		       d0 0a		      bne	Ld796	;2/3 =  10 *
   1041  078c				   Ld78c
   1042  078c		       a9 58		      lda	#$58	;2   =   2 *
   1043  078e				   Ld78e
   1044  078e		       85 d9		      sta	indy_anim	;3	    *
   1045  0790		       a9 0b		      lda	#$0b	;2   =   5 *
   1046  0792				   Ld792
   1047  0792		       85 db		      sta	indy_h	;3	    *
   1048  0794		       d0 1c		      bne	Ld7b2	;2/3 =   5 *
   1049  0796				   Ld796
   1050  0796		       a9 03		      lda	#$03	;2	    *
   1051  0798		       24 8a		      bit	ram_8A	;3	    *
   1052  079a		       30 01		      bmi	Ld79d	;2/3	    *
   1053  079c		       4a		      lsr		;2   =   9 *
   1054  079d				   Ld79d
   1055  079d		       25 82		      and	frame_counter	;3	    *
   1056  079f		       d0 11		      bne	Ld7b2	;2/3	    *
   1057  07a1		       a9 0b		      lda	#$0b	;2	    *
   1058  07a3		       18		      clc		;2	    *
   1059  07a4		       65 d9		      adc	indy_anim	;3	    *
   1060  07a6		       c9 58		      cmp	#$58	;2	    *
   1061  07a8		       90 e4		      bcc	Ld78e	;2/3	    *
   1062  07aa		       a9 02		      lda	#$02	;2	    *
   1063  07ac		       85 a3		      sta	ram_A3	;3	    *
   1064  07ae		       a9 00		      lda	#$00	;2	    *
   1065  07b0		       b0 dc		      bcs	Ld78e	;2/3 =  25 *
   1066  07b2				   Ld7b2
   1067  07b2		       a6 81		      ldx	room_num	;3	    *
   1068  07b4		       e0 09		      cpx	#$09	;2	    *
   1069  07b6		       f0 04		      beq	Ld7bc	;2/3	    *
   1070  07b8		       e0 0a		      cpx	#$0a	;2	    *
   1071  07ba		       d0 46		      bne	Ld802	;2/3!=  11 *
   1072  07bc				   Ld7bc
   1073  07bc		       a5 82		      lda	frame_counter	;3	    *
   1074  07be		       24 8a		      bit	ram_8A	;3	    *
   1075  07c0		       10 01		      bpl	Ld7c3	;2/3	    *
   1076  07c2		       4a		      lsr		;2   =  10 *
   1077  07c3				   Ld7c3
   1078  07c3		       a4 cf		      ldy	indy_y	;3	    *
   1079  07c5		       c0 27		      cpy	#$27	;2	    *
   1080  07c7		       f0 39		      beq	Ld802	;2/3!	    *
   1081  07c9		       a6 df		      ldx	ram_DF	;3	    *
   1082  07cb		       b0 1b		      bcs	Ld7e8	;2/3	    *
   1083  07cd		       f0 33		      beq	Ld802	;2/3!	    *
   1084  07cf		       e6 cf		      inc	indy_y	;5	    *
   1085  07d1		       e6 d1		      inc	ram_D1	;5	    *
   1086  07d3		       29 02		      and	#$02	;2	    *
   1087  07d5		       d0 2b		      bne	Ld802	;2/3!	    *
   1088  07d7		       c6 df		      dec	ram_DF	;5	    *
   1089  07d9		       e6 ce		      inc	enemy_y	;5	    *
   1090  07db		       e6 d0		      inc	ram_D0	;5	    *
   1091  07dd		       e6 d2		      inc	ram_D2	;5	    *
   1092  07df		       e6 ce		      inc	enemy_y	;5	    *
   1093  07e1		       e6 d0		      inc	ram_D0	;5	    *
   1094  07e3		       e6 d2		      inc	ram_D2	;5	    *
   1095  07e5		       4c 02 d8 	      jmp	Ld802	;3   =  66 *
   1096  07e8
   1097  07e8				   Ld7e8
   1098  07e8		       e0 50		      cpx	#$50	;2	    *
   1099  07ea		       b0 16		      bcs	Ld802	;2/3!	    *
   1100  07ec		       c6 cf		      dec	indy_y	;5	    *
   1101  07ee		       c6 d1		      dec	ram_D1	;5	    *
   1102  07f0		       29 02		      and	#$02	;2	    *
   1103  07f2		       d0 0e		      bne	Ld802	;2/3!	    *
   1104  07f4		       e6 df		      inc	ram_DF	;5	    *
   1105  07f6		       c6 ce		      dec	enemy_y	;5	    *
   1106  07f8		       c6 d0		      dec	ram_D0	;5	    *
   1107  07fa		       c6 d2		      dec	ram_D2	;5	    *
   1108  07fc		       c6 ce		      dec	enemy_y	;5	    *
   1109  07fe		       c6 d0		      dec	ram_D0	;5	    *
   1110  0800		       c6 d2		      dec	ram_D2	;5   =  53 *
   1111  0802				   Ld802
   1112  0802		       a9 28		      lda	#$28	;2	    *
   1113  0804		       85 88		      sta	ram_88	;3	    *
   1114  0806		       a9 f5		      lda	#$f5	;2	    *
   1115  0808		       85 89		      sta	ram_89	;3	    *
   1116  080a		       4c ad df 	      jmp	Ldfad	;3   =  13 *
   1117  080d
   1118  080d				   Ld80d
   1119  080d		       a5 99		      lda	ram_99	;3	   
   1120  080f		       f0 05		      beq	Ld816	;2/3	   
   1121  0811		       20 59 dd 	      jsr	Ldd59	;6	    *
   1122  0814		       a9 00		      lda	#$00	;2   =  13 *
   1123  0816				   Ld816
   1124  0816		       85 99		      sta	ram_99	;3	   
   1125  0818		       a6 81		      ldx	room_num	;3	   
   1126  081a		       bd 00 db 	      lda	Ldb00,x	;4	   
   1127  081d		       85 04		      sta	NUSIZ0	;3	   
   1128  081f		       a5 94		      lda	ram_94	;3	   
   1129  0821		       85 0a		      sta	CTRLPF	;3	   
   1130  0823		       bd a0 db 	      lda	Ldba0,x	;4	   
   1131  0826		       85 09		      sta	COLUBK	;3	   
   1132  0828		       bd ae db 	      lda	Ldbae,x	;4	   
   1133  082b		       85 08		      sta	COLUPF	;3	   
   1134  082d		       bd c3 db 	      lda	Ldbc3,x	;4	   
   1135  0830		       85 06		      sta	COLUP0	;3	   
   1136  0832		       bd bc db 	      lda	Ldbbc,x	;4	   
   1137  0835		       85 07		      sta	COLUP1	;3	   
   1138  0837		       e0 0b		      cpx	#$0b	;2	   
   1139  0839		       90 10		      bcc	Ld84b	;2/3	   
   1140  083b		       a9 20		      lda	#$20	;2	   
   1141  083d		       85 d4		      sta	ram_D4	;3	   
   1142  083f		       a2 04		      ldx	#$04	;2   =  58
   1143  0841				   Ld841
   1144  0841		       b4 e5		      ldy	ram_E5,x	;4	   
   1145  0843		       b9 00 db 	      lda	Ldb00,y	;4	   
   1146  0846		       95 ee		      sta	ram_EE,x	;4	   
   1147  0848		       ca		      dex		;2	   
   1148  0849		       10 f6		      bpl	Ld841	;2/3 =  16
   1149  084b				   Ld84b
   1150  084b		       4c 06 d0 	      jmp	Ld006	;3   =   3
   1151  084e
   1152  084e				   Ld84e
   1153  084e		       a9 4d		      lda	#$4d	;2	   
   1154  0850		       85 c9		      sta	indy_x	;3	   
   1155  0852		       a9 48		      lda	#$48	;2	   
   1156  0854		       85 c8		      sta	enemy_x	;3	   
   1157  0856		       a9 1f		      lda	#$1f	;2	   
   1158  0858		       85 cf		      sta	indy_y	;3	   
   1159  085a		       60		      rts		;6   =  21
   1160  085b
   1161  085b				   Ld85b
   1162  085b		       a2 00		      ldx	#$00	;2	    *
   1163  085d		       8a		      txa		;2   =   4 *
   1164  085e				   Ld85e
   1165  085e		       95 df		      sta	ram_DF,x	;4	    *
   1166  0860		       95 e0		      sta	ram_E0,x	;4	    *
   1167  0862		       95 e1		      sta	PF1_data,x	;4	    *
   1168  0864		       95 e2		      sta	ram_E2,x	;4	    *
   1169  0866		       95 e3		      sta	PF2_data,x	;4	    *
   1170  0868		       95 e4		      sta	ram_E4,x	;4	    *
   1171  086a		       8a		      txa		;2	    *
   1172  086b		       d0 06		      bne	Ld873	;2/3	    *
   1173  086d		       a2 06		      ldx	#$06	;2	    *
   1174  086f		       a9 14		      lda	#$14	;2	    *
   1175  0871		       d0 eb		      bne	Ld85e	;2/3 =  34 *
   1176  0873				   Ld873
   1177  0873		       a9 fc		      lda	#$fc	;2	    *
   1178  0875		       85 d7		      sta	ram_D7	;3	    *
   1179  0877		       60		      rts		;6   =  11 *
   1180  0878
   1181  0878				   Ld878
   1182  0878		       a5 9a		      lda	ram_9A	;3	   
   1183  087a		       10 04		      bpl	Ld880	;2/3	   
   1184  087c		       09 40		      ora	#$40	;2	    *
   1185  087e		       85 9a		      sta	ram_9A	;3   =  10 *
   1186  0880				   Ld880
   1187  0880		       a9 5c		      lda	#$5c	;2	   
   1188  0882		       85 96		      sta	ram_96	;3	   
   1189  0884		       a2 00		      ldx	#$00	;2	   
   1190  0886		       86 93		      stx	ram_93	;3	   
   1191  0888		       86 b6		      stx	ram_B6	;3	   
   1192  088a		       86 8e		      stx	ram_8E	;3	   
   1193  088c		       86 90		      stx	ram_90	;3	   
   1194  088e		       a5 95		      lda	ram_95	;3	   
   1195  0890		       86 95		      stx	ram_95	;3	   
   1196  0892		       20 59 dd 	      jsr	Ldd59	;6	   
   1197  0895		       26 8a		      rol	ram_8A	;5	   
   1198  0897		       18		      clc		;2	   
   1199  0898		       66 8a		      ror	ram_8A	;5	   
   1200  089a		       a6 81		      ldx	room_num	;3	   
   1201  089c		       bd 92 db 	      lda	Ldb92,x	;4	   
   1202  089f		       85 94		      sta	ram_94	;3	   
   1203  08a1		       e0 0d		      cpx	#$0d	;2	   
   1204  08a3		       f0 a9		      beq	Ld84e	;2/3	   
   1205  08a5		       e0 05		      cpx	#$05	;2	    *
   1206  08a7		       f0 08		      beq	Ld8b1	;2/3	    *
   1207  08a9		       e0 0c		      cpx	#$0c	;2	    *
   1208  08ab		       f0 04		      beq	Ld8b1	;2/3	    *
   1209  08ad		       a9 00		      lda	#$00	;2	    *
   1210  08af		       85 8b		      sta	ram_8B	;3   =  70 *
   1211  08b1				   Ld8b1
   1212  08b1		       bd ee db 	      lda	Ldbee,x	;4	    *
   1213  08b4		       85 dd		      sta	emy_anim	;3	    *
   1214  08b6		       bd e1 db 	      lda	Ldbe1,x	;4	    *
   1215  08b9		       85 de		      sta	ram_DE	;3	    *
   1216  08bb		       bd c9 db 	      lda	Ldbc9,x	;4	    *
   1217  08be		       85 dc		      sta	snake_y	;3	    *
   1218  08c0		       bd d4 db 	      lda	Ldbd4,x	;4	    *
   1219  08c3		       85 c8		      sta	enemy_x	;3	    *
   1220  08c5		       bd 0e dc 	      lda	Ldc0e,x	;4	    *
   1221  08c8		       85 ca		      sta	ram_CA	;3	    *
   1222  08ca		       bd 1b dc 	      lda	Ldc1b,x	;4	    *
   1223  08cd		       85 d0		      sta	ram_D0	;3	    *
   1224  08cf		       e0 0b		      cpx	#$0b	;2	    *
   1225  08d1		       b0 88		      bcs	Ld85b	;2/3	    *
   1226  08d3		       7d 03 dc 	      adc	Ldc03,x	;4	    *
   1227  08d6		       85 e0		      sta	ram_E0	;3	    *
   1228  08d8		       bd 28 dc 	      lda	Ldc28,x	;4	    *
   1229  08db		       85 e1		      sta	PF1_data	;3	    *
   1230  08dd		       bd 33 dc 	      lda	Ldc33,x	;4	    *
   1231  08e0		       85 e2		      sta	ram_E2	;3	    *
   1232  08e2		       bd 3e dc 	      lda	Ldc3e,x	;4	    *
   1233  08e5		       85 e3		      sta	PF2_data	;3	    *
   1234  08e7		       bd 49 dc 	      lda	Ldc49,x	;4	    *
   1235  08ea		       85 e4		      sta	ram_E4	;3	    *
   1236  08ec		       a9 55		      lda	#$55	;2	    *
   1237  08ee		       85 d2		      sta	ram_D2	;3	    *
   1238  08f0		       85 d1		      sta	ram_D1	;3	    *
   1239  08f2		       e0 06		      cpx	#$06	;2	    *
   1240  08f4		       b0 48		      bcs	Ld93e	;2/3!	    *
   1241  08f6		       a9 00		      lda	#$00	;2	    *
   1242  08f8		       e0 00		      cpx	#$00	;2	    *
   1243  08fa		       f0 1f		      beq	Ld91b	;2/3!	    *
   1244  08fc		       e0 02		      cpx	#$02	;2	    *
   1245  08fe		       f0 2a		      beq	Ld92a	;2/3	    *
   1246  0900		       85 ce		      sta	enemy_y	;3   = 106 *
   1247  0902				   Ld902
   1248  0902		       a0 4f		      ldy	#$4f	;2	    *
   1249  0904		       e0 02		      cpx	#$02	;2	    *
   1250  0906		       90 10		      bcc	Ld918	;2/3	    *
   1251  0908		       b5 af		      lda	ram_AF,x	;4	    *
   1252  090a		       6a		      ror		;2	    *
   1253  090b		       90 0b		      bcc	Ld918	;2/3	    *
   1254  090d		       bc 72 df 	      ldy	Ldf72,x	;4	    *
   1255  0910		       e0 03		      cpx	#$03	;2	    *
   1256  0912		       d0 04		      bne	Ld918	;2/3	    *
   1257  0914		       a9 ff		      lda	#$ff	;2	    *
   1258  0916		       85 d0		      sta	ram_D0	;3   =  27 *
   1259  0918				   Ld918
   1260  0918		       84 df		      sty	ram_DF	;3	    *
   1261  091a		       60		      rts		;6   =   9 *
   1262  091b
   1263  091b				   Ld91b
   1264  091b		       a5 af		      lda	ram_AF	;3	    *
   1265  091d		       29 78		      and	#$78	;2	    *
   1266  091f		       85 af		      sta	ram_AF	;3	    *
   1267  0921		       a9 1a		      lda	#$1a	;2	    *
   1268  0923		       85 ce		      sta	enemy_y	;3	    *
   1269  0925		       a9 26		      lda	#$26	;2	    *
   1270  0927		       85 df		      sta	ram_DF	;3	    *
   1271  0929		       60		      rts		;6   =  24 *
   1272  092a
   1273  092a				   Ld92a
   1274  092a		       a5 b1		      lda	ram_B1	;3	    *
   1275  092c		       29 07		      and	#$07	;2	    *
   1276  092e		       4a		      lsr		;2	    *
   1277  092f		       d0 04		      bne	Ld935	;2/3	    *
   1278  0931		       a0 ff		      ldy	#$ff	;2	    *
   1279  0933		       84 d0		      sty	ram_D0	;3   =  14 *
   1280  0935				   Ld935
   1281  0935		       a8		      tay		;2	    *
   1282  0936		       b9 70 df 	      lda	Ldf70,y	;4	    *
   1283  0939		       85 ce		      sta	enemy_y	;3	    *
   1284  093b		       4c 02 d9 	      jmp	Ld902	;3   =  12 *
   1285  093e
   1286  093e				   Ld93e
   1287  093e		       e0 08		      cpx	#$08	;2	    *
   1288  0940		       f0 0e		      beq	Ld950	;2/3	    *
   1289  0942		       e0 06		      cpx	#$06	;2	    *
   1290  0944		       d0 22		      bne	Ld968	;2/3	    *
   1291  0946		       a0 00		      ldy	#$00	;2	    *
   1292  0948		       84 d8		      sty	ram_D8	;3	    *
   1293  094a		       a0 40		      ldy	#$40	;2	    *
   1294  094c		       84 e5		      sty	ram_E5	;3	    *
   1295  094e		       d0 08		      bne	Ld958	;2/3 =  20 *
   1296  0950				   Ld950
   1297  0950		       a0 ff		      ldy	#$ff	;2	    *
   1298  0952		       84 e5		      sty	ram_E5	;3	    *
   1299  0954		       c8		      iny		;2	    *
   1300  0955		       84 d8		      sty	ram_D8	;3	    *
   1301  0957		       c8		      iny		;2   =  12 *
   1302  0958				   Ld958
   1303  0958		       84 e6		      sty	ram_E6	;3	    *
   1304  095a		       84 e7		      sty	ram_E7	;3	    *
   1305  095c		       84 e8		      sty	ram_E8	;3	    *
   1306  095e		       84 e9		      sty	ram_E9	;3	    *
   1307  0960		       84 ea		      sty	ram_EA	;3	    *
   1308  0962		       a0 39		      ldy	#$39	;2	    *
   1309  0964		       84 d4		      sty	ram_D4	;3	    *
   1310  0966		       84 d5		      sty	ram_D5	;3   =  23 *
   1311  0968				   Ld968
   1312  0968		       e0 09		      cpx	#$09	;2	    *
   1313  096a		       d0 0b		      bne	Ld977	;2/3	    *
   1314  096c		       a4 cf		      ldy	indy_y	;3	    *
   1315  096e		       c0 49		      cpy	#$49	;2	    *
   1316  0970		       90 05		      bcc	Ld977	;2/3	    *
   1317  0972		       a9 50		      lda	#$50	;2	    *
   1318  0974		       85 df		      sta	ram_DF	;3	    *
   1319  0976		       60		      rts		;6   =  22 *
   1320  0977
   1321  0977				   Ld977
   1322  0977		       a9 00		      lda	#$00	;2	    *
   1323  0979		       85 df		      sta	ram_DF	;3	    *
   1324  097b		       60		      rts		;6   =  11 *
   1325  097c
   1326  097c				   Ld97c
   1327  097c		       bc 00 de 	      ldy	Lde00,x	;4	    *
   1328  097f		       c4 86		      cpy	ram_86	;3	    *
   1329  0981		       f0 03		      beq	Ld986	;2/3	    *
   1330  0983		       18		      clc		;2	    *
   1331  0984		       b8		      clv		;2	    *
   1332  0985		       60		      rts		;6   =  19 *
   1333  0986
   1334  0986				   Ld986
   1335  0986		       bc 34 de 	      ldy	Lde34,x	;4	    *
   1336  0989		       30 10		      bmi	Ld99b	;2/3 =   6 *
   1337  098b				   Ld98b
   1338  098b		       bd 04 df 	      lda	Ldf04,x	;4	    *
   1339  098e		       f0 02		      beq	Ld992	;2/3 =   6 *
   1340  0990				   Ld990
   1341  0990		       85 cf		      sta	indy_y	;3   =   3 *
   1342  0992				   Ld992
   1343  0992		       bd 38 df 	      lda	Ldf38,x	;4	    *
   1344  0995		       f0 02		      beq	Ld999	;2/3	    *
   1345  0997		       85 c9		      sta	indy_x	;3   =   9 *
   1346  0999				   Ld999
   1347  0999		       38		      sec		;2	    *
   1348  099a		       60		      rts		;6   =   8 *
   1349  099b
   1350  099b				   Ld99b
   1351  099b		       c8		      iny		;2	    *
   1352  099c		       f0 5b		      beq	Ld9f9	;2/3	    *
   1353  099e		       c8		      iny		;2	    *
   1354  099f		       d0 15		      bne	Ld9b6	;2/3	    *
   1355  09a1		       bc 68 de 	      ldy	Lde68,x	;4	    *
   1356  09a4		       c4 87		      cpy	ram_87	;3	    *
   1357  09a6		       90 07		      bcc	Ld9af	;2/3	    *
   1358  09a8		       bc 9c de 	      ldy	Lde9c,x	;4	    *
   1359  09ab		       30 1a		      bmi	Ld9c7	;2/3	    *
   1360  09ad		       10 dc		      bpl	Ld98b	;2/3 =  25 *
   1361  09af				   Ld9af
   1362  09af		       bc d0 de 	      ldy	Lded0,x	;4	    *
   1363  09b2		       30 13		      bmi	Ld9c7	;2/3	    *
   1364  09b4		       10 d5		      bpl	Ld98b	;2/3 =   8 *
   1365  09b6				   Ld9b6
   1366  09b6		       a5 87		      lda	ram_87	;3	    *
   1367  09b8		       dd 68 de 	      cmp	Lde68,x	;4	    *
   1368  09bb		       90 3c		      bcc	Ld9f9	;2/3	    *
   1369  09bd		       dd 9c de 	      cmp	Lde9c,x	;4	    *
   1370  09c0		       b0 37		      bcs	Ld9f9	;2/3	    *
   1371  09c2		       bc d0 de 	      ldy	Lded0,x	;4	    *
   1372  09c5		       10 c4		      bpl	Ld98b	;2/3 =  21 *
   1373  09c7				   Ld9c7
   1374  09c7		       c8		      iny		;2	    *
   1375  09c8		       30 0a		      bmi	Ld9d4	;2/3	    *
   1376  09ca		       a0 08		      ldy	#$08	;2	    *
   1377  09cc		       24 af		      bit	ram_AF	;3	    *
   1378  09ce		       10 bb		      bpl	Ld98b	;2/3	    *
   1379  09d0		       a9 41		      lda	#$41	;2	    *
   1380  09d2		       d0 bc		      bne	Ld990	;2/3 =  15 *
   1381  09d4				   Ld9d4
   1382  09d4		       c8		      iny		;2	    *
   1383  09d5		       d0 0a		      bne	Ld9e1	;2/3	    *
   1384  09d7		       a5 b5		      lda	ram_B5	;3	    *
   1385  09d9		       29 0f		      and	#$0f	;2	    *
   1386  09db		       d0 1c		      bne	Ld9f9	;2/3	    *
   1387  09dd		       a0 06		      ldy	#$06	;2	    *
   1388  09df		       d0 aa		      bne	Ld98b	;2/3 =  15 *
   1389  09e1				   Ld9e1
   1390  09e1		       c8		      iny		;2	    *
   1391  09e2		       d0 0c		      bne	Ld9f0	;2/3	    *
   1392  09e4		       a5 b5		      lda	ram_B5	;3	    *
   1393  09e6		       29 0f		      and	#$0f	;2	    *
   1394  09e8		       c9 0a		      cmp	#$0a	;2	    *
   1395  09ea		       b0 0d		      bcs	Ld9f9	;2/3	    *
   1396  09ec		       a0 06		      ldy	#$06	;2	    *
   1397  09ee		       d0 9b		      bne	Ld98b	;2/3 =  17 *
   1398  09f0				   Ld9f0
   1399  09f0		       c8		      iny		;2	    *
   1400  09f1		       d0 0b		      bne	Ld9fe	;2/3	    *
   1401  09f3		       a0 01		      ldy	#$01	;2	    *
   1402  09f5		       24 8a		      bit	ram_8A	;3	    *
   1403  09f7		       30 92		      bmi	Ld98b	;2/3 =  11 *
   1404  09f9				   Ld9f9
   1405  09f9		       18		      clc		;2	    *
   1406  09fa		       2c fd d9 	      bit	Ld9fd	;4   =   6 *
   1407  09fd
   1408  09fd				   Ld9fd
   1409  09fd		       60		      .byte.b	$60	; $d9fd (D)
   1410  09fe
   1411  09fe				   Ld9fe
   1412  09fe		       c8		      iny		;2	    *
   1413  09ff		       d0 f8		      bne	Ld9f9	;2/3!	    *
   1414  0a01		       a0 06		      ldy	#$06	;2	    *
   1415  0a03		       a9 0e		      lda	#$0e	;2	    *
   1416  0a05		       c5 c5		      cmp	current_inv	;3	    *
   1417  0a07		       d0 f0		      bne	Ld9f9	;2/3!	    *
   1418  0a09		       24 3d		      bit	INPT5|$30	;3	    *
   1419  0a0b		       30 ec		      bmi	Ld9f9	;2/3!	    *
   1420  0a0d		       4c 8b d9 	      jmp	Ld98b	;3   =  21 *
   1421  0a10
   1422  0a10				   Lda10
   1423  0a10		       a4 c4		      ldy	ram_C4	;3	    *
   1424  0a12		       d0 02		      bne	Lda16	;2/3	    *
   1425  0a14		       18		      clc		;2	    *
   1426  0a15		       60		      rts		;6   =  13 *
   1427  0a16
   1428  0a16				   Lda16
   1429  0a16		       b0 28		      bcs	Lda40	;2/3	    *
   1430  0a18		       a8		      tay		;2	    *
   1431  0a19		       0a		      asl		;2	    *
   1432  0a1a		       0a		      asl		;2	    *
   1433  0a1b		       0a		      asl		;2	    *
   1434  0a1c		       a2 0a		      ldx	#$0a	;2   =  12 *
   1435  0a1e				   Lda1e
   1436  0a1e		       d5 b7		      cmp	inv_slot1_lo,x	;4	    *
   1437  0a20		       d0 18		      bne	Lda3a	;2/3	    *
   1438  0a22		       e4 c3		      cpx	cursor_pos	;3	    *
   1439  0a24		       f0 14		      beq	Lda3a	;2/3	    *
   1440  0a26		       c6 c4		      dec	ram_C4	;5	    *
   1441  0a28		       a9 00		      lda	#$00	;2	    *
   1442  0a2a		       95 b7		      sta	inv_slot1_lo,x	;4	    *
   1443  0a2c		       c0 05		      cpy	#$05	;2	    *
   1444  0a2e		       90 07		      bcc	Lda37	;2/3	    *
   1445  0a30		       98		      tya		;2	    *
   1446  0a31		       aa		      tax		;2	    *
   1447  0a32		       20 1b dd 	      jsr	Ldd1b	;6	    *
   1448  0a35		       8a		      txa		;2	    *
   1449  0a36		       a8		      tay		;2   =  40 *
   1450  0a37				   Lda37
   1451  0a37		       4c f7 da 	      jmp	Ldaf7	;3   =   3 *
   1452  0a3a
   1453  0a3a				   Lda3a
   1454  0a3a		       ca		      dex		;2	    *
   1455  0a3b		       ca		      dex		;2	    *
   1456  0a3c		       10 e0		      bpl	Lda1e	;2/3	    *
   1457  0a3e		       18		      clc		;2	    *
   1458  0a3f		       60		      rts		;6   =  14 *
   1459  0a40
   1460  0a40				   Lda40
   1461  0a40		       a9 00		      lda	#$00	;2	    *
   1462  0a42		       a6 c3		      ldx	cursor_pos	;3	    *
   1463  0a44		       95 b7		      sta	inv_slot1_lo,x	;4	    *
   1464  0a46		       a6 c5		      ldx	current_inv	;3	    *
   1465  0a48		       e0 07		      cpx	#$07	;2	    *
   1466  0a4a		       90 03		      bcc	Lda4f	;2/3	    *
   1467  0a4c		       20 1b dd 	      jsr	Ldd1b	;6   =  22 *
   1468  0a4f				   Lda4f
   1469  0a4f		       8a		      txa		;2	    *
   1470  0a50		       a8		      tay		;2	    *
   1471  0a51		       0a		      asl		;2	    *
   1472  0a52		       aa		      tax		;2	    *
   1473  0a53		       bd 76 dc 	      lda	Ldc76,x	;4	    *
   1474  0a56		       48		      pha		;3	    *
   1475  0a57		       bd 75 dc 	      lda	Ldc75,x	;4	    *
   1476  0a5a		       48		      pha		;3	    *
   1477  0a5b		       a6 81		      ldx	room_num	;3	    *
   1478  0a5d		       60		      rts		;6   =  31 *
   1479  0a5e
   1480  0a5e		       a9 3f 25 b4*	      .byte.b	$a9,$3f,$25,$b4,$85,$b4,$4c,$d8	; $da5e (*)
   1481  0a66		       da 86 8d a9*	      .byte.b	$da,$86,$8d,$a9,$70,$85,$d1,$d0	; $da66 (*)
   1482  0a6e		       f5 a9 42 c5*	      .byte.b	$f5,$a9,$42,$c5,$91,$d0,$11,$a9	; $da6e (*)
   1483  0a76		       03 85 81 20*	      .byte.b	$03,$85,$81,$20,$78,$d8,$a9,$15	; $da76 (*)
   1484  0a7e		       85 c9 a9 1c*	      .byte.b	$85,$c9,$a9,$1c,$85,$cf,$d0,$52	; $da7e (*)
   1485  0a86		       e0 05 d0 4e*	      .byte.b	$e0,$05,$d0,$4e,$a9,$05,$c5,$8b	; $da86 (*)
   1486  0a8e		       d0 48 85 aa*	      .byte.b	$d0,$48,$85,$aa,$a9,$00,$85,$ce	; $da8e (*)
   1487  0a96		       a9 02 05 b4*	      .byte.b	$a9,$02,$05,$b4,$85,$b4,$d0,$3a	; $da96 (*)
   1488  0a9e		       66 b1 18 26*	      .byte.b	$66,$b1,$18,$26,$b1,$e0,$02,$d0	; $da9e (*)
   1489  0aa6		       04 a9 4e 85*	      .byte.b	$04,$a9,$4e,$85,$df,$d0,$2b,$66	; $daa6 (*)
   1490  0aae		       b2 18 26 b2*	      .byte.b	$b2,$18,$26,$b2,$e0,$03,$d0,$08	; $daae (*)
   1491  0ab6		       a9 4f 85 df*	      .byte.b	$a9,$4f,$85,$df,$a9,$4b,$85,$d0	; $dab6 (*)
   1492  0abe		       d0 18 a6 81*	      .byte.b	$d0,$18,$a6,$81,$e0,$03,$d0,$0b	; $dabe (*)
   1493  0ac6		       a5 c9 c9 3c*	      .byte.b	$a5,$c9,$c9,$3c,$b0,$05,$26,$b2	; $dac6 (*)
   1494  0ace		       38 66 b2 a5*	      .byte.b	$38,$66,$b2,$a5,$91,$18,$69,$40	; $dace (*)
   1495  0ad6		       85 91 c6 c4*	      .byte.b	$85,$91,$c6,$c4,$d0,$06,$a9,$00	; $dad6 (*)
   1496  0ade		       85 c5 f0 15*	      .byte.b	$85,$c5,$f0,$15,$a6,$c3,$e8,$e8	; $dade (*)
   1497  0ae6		       e0 0b 90 02*	      .byte.b	$e0,$0b,$90,$02,$a2,$00,$b5,$b7	; $dae6 (*)
   1498  0aee		       f0 f4 86 c3*	      .byte.b	$f0,$f4,$86,$c3,$4a,$4a,$4a,$85	; $daee (*)
   1499  0af6		       c5		      .byte.b	$c5	; $daf6 (*)
   1500  0af7
   1501  0af7				   Ldaf7
   1502  0af7		       a9 0d		      lda	#$0d	;2	    *
   1503  0af9		       85 a2		      sta	ram_A2	;3	    *
   1504  0afb		       38		      sec		;2	    *
   1505  0afc		       60		      rts		;6   =  13 *
   1506  0afd
   1507  0afd		       00 00 00 	      .byte.b	$00,$00,$00	; $dafd (*)
   1508  0b00				   Ldb00
   1509  0b00		       00		      .byte.b	$00	; $db00 (D)
   1510  0b01		       00 35 10 17*	      .byte.b	$00,$35,$10,$17,$30,$00,$00,$00	; $db01 (*)
   1511  0b09		       00 00 00 00	      .byte.b	$00,$00,$00,$00	; $db09 (*)
   1512  0b0d		       05		      .byte.b	$05	; $db0d (D)
   1513  0b0e		       00 00 f0 e0*	      .byte.b	$00,$00,$f0,$e0,$d0,$c0,$b0,$a0	; $db0e (*)
   1514  0b16		       90 71 61 51*	      .byte.b	$90,$71,$61,$51,$41,$31,$21,$11	; $db16 (*)
   1515  0b1e		       01 f1 e1 d1*	      .byte.b	$01,$f1,$e1,$d1,$c1,$b1,$a1,$91	; $db1e (*)
   1516  0b26		       72 62 52 42*	      .byte.b	$72,$62,$52,$42,$32,$22,$12,$02	; $db26 (*)
   1517  0b2e		       f2 e2 d2 c2*	      .byte.b	$f2,$e2,$d2,$c2,$b2,$a2,$92,$73	; $db2e (*)
   1518  0b36		       63 53 43 33*	      .byte.b	$63,$53,$43,$33,$23,$13,$03,$f3	; $db36 (*)
   1519  0b3e		       e3 d3 c3 b3*	      .byte.b	$e3,$d3,$c3,$b3,$a3,$93,$74,$64	; $db3e (*)
   1520  0b46		       54 44		      .byte.b	$54,$44	; $db46 (*)
   1521  0b48		       34		      .byte.b	$34	; $db48 (D)
   1522  0b49		       24 14 04 f4	      .byte.b	$24,$14,$04,$f4	; $db49 (*)
   1523  0b4d		       e4		      .byte.b	$e4	; $db4d (D)
   1524  0b4e		       d4 c4 b4 a4*	      .byte.b	$d4,$c4,$b4,$a4,$94,$75,$65,$55	; $db4e (*)
   1525  0b56		       45 35 25 15*	      .byte.b	$45,$35,$25,$15,$05,$f5,$e5,$d5	; $db56 (*)
   1526  0b5e		       c5 b5 a5 95*	      .byte.b	$c5,$b5,$a5,$95,$76,$66,$56,$46	; $db5e (*)
   1527  0b66		       36 26 16 06*	      .byte.b	$36,$26,$16,$06,$f6,$e6,$d6,$c6	; $db66 (*)
   1528  0b6e		       b6 a6 96 77*	      .byte.b	$b6,$a6,$96,$77,$67,$57,$47,$37	; $db6e (*)
   1529  0b76		       27 17 07 f7*	      .byte.b	$27,$17,$07,$f7,$e7,$d7,$c7,$b7	; $db76 (*)
   1530  0b7e		       a7 97 78 68*	      .byte.b	$a7,$97,$78,$68,$58,$48,$38,$28	; $db7e (*)
   1531  0b86		       18 08 f8 e8*	      .byte.b	$18,$08,$f8,$e8,$d8,$c8,$b8,$a8	; $db86 (*)
   1532  0b8e		       98 79 69 59	      .byte.b	$98,$79,$69,$59	; $db8e (*)
   1533  0b92				   Ldb92
   1534  0b92		       11 11 11 11*	      .byte.b	$11,$11,$11,$11,$31,$11,$25,$05	; $db92 (*)
   1535  0b9a		       05 01 01 05*	      .byte.b	$05,$01,$01,$05,$05	; $db9a (*)
   1536  0b9f		       01		      .byte.b	$01	; $db9f (D)
   1537  0ba0				   Ldba0
   1538  0ba0		       00 24 96 22*	      .byte.b	$00,$24,$96,$22,$72,$fc,$00,$00	; $dba0 (*)
   1539  0ba8		       00 72 12 00*	      .byte.b	$00,$72,$12,$00,$f8	; $dba8 (*)
   1540  0bad
   1541  0bad		       00		      .byte.b	$00|$0	; $dbad (CB)
   1542  0bae
   1543  0bae				   Ldbae
   1544  0bae		       08 22 08 00*	      .byte.b	$08,$22,$08,$00,$1a,$28,$c8,$e8	; $dbae (*)
   1545  0bb6		       8a 1a c6 00*	      .byte.b	$8a,$1a,$c6,$00,$28	; $dbb6 (*)
   1546  0bbb
   1547  0bbb		       78		      .byte.b	$70|$8	; $dbbb (CP)
   1548  0bbc
   1549  0bbc				   Ldbbc
   1550  0bbc		       cc ea 5a 26*	      .byte.b	$cc,$ea,$5a,$26,$9e,$a6,$7c	; $dbbc (*)
   1551  0bc3				   Ldbc3
   1552  0bc3		       88 28 f8 4a*	      .byte.b	$88,$28,$f8,$4a,$26,$a8	; $dbc3 (*)
   1553  0bc9
   1554  0bc9				   Ldbc9
   1555  0bc9		       cc		      .byte.b	$c0|$c	; $dbc9 (C)
   1556  0bca
   1557  0bca		       ce 4a 98 00*	      .byte.b	$ce,$4a,$98,$00,$00,$00	; $dbca (*)
   1558  0bd0
   1559  0bd0		       08		      .byte.b	$00|$8	; $dbd0 (C)
   1560  0bd1
   1561  0bd1		       07 01 10 	      .byte.b	$07,$01,$10	; $dbd1 (*)
   1562  0bd4				   Ldbd4
   1563  0bd4		       78 4c 5d 4c*	      .byte.b	$78,$4c,$5d,$4c,$4f,$4c,$12,$4c	; $dbd4 (*)
   1564  0bdc		       4c 4c 4c 12*	      .byte.b	$4c,$4c,$4c,$12,$12	; $dbdc (*)
   1565  0be1				   Ldbe1
   1566  0be1		       ff ff ff f9*	      .byte.b	$ff,$ff,$ff,$f9,$f9,$f9,$fa,$00	; $dbe1 (*)
   1567  0be9		       fd fb fc fc*	      .byte.b	$fd,$fb,$fc,$fc,$fc	; $dbe9 (*)
   1568  0bee				   Ldbee
   1569  0bee		       00 51 a1 00*	      .byte.b	$00,$51,$a1,$00,$51,$a2,$c1,$e5	; $dbee (*)
   1570  0bf6		       e0 00 00 00*	      .byte.b	$e0,$00,$00,$00,$00	; $dbf6 (*)
   1571  0bfb				   Ldbfb
   1572  0bfb		       72 7a 8a 82	      .byte.b	$72,$7a,$8a,$82	; $dbfb (*)
   1573  0bff				   Ldbff
   1574  0bff		       fe fa 02 06	      .byte.b	$fe,$fa,$02,$06	; $dbff (*)
   1575  0c03				   Ldc03
   1576  0c03		       00 00 18 04*	      .byte.b	$00,$00,$18,$04,$03,$03,$85,$85	; $dc03 (*)
   1577  0c0b		       3b 85 85 	      .byte.b	$3b,$85,$85	; $dc0b (*)
   1578  0c0e				   Ldc0e
   1579  0c0e		       20 78 85 4d*	      .byte.b	$20,$78,$85,$4d,$62,$17,$50,$50	; $dc0e (*)
   1580  0c16		       50 50 50 12*	      .byte.b	$50,$50,$50,$12,$12	; $dc16 (*)
   1581  0c1b				   Ldc1b
   1582  0c1b		       ff ff 14 4b*	      .byte.b	$ff,$ff,$14,$4b,$4a,$44,$ff,$27	; $dc1b (*)
   1583  0c23		       ff ff ff f0*	      .byte.b	$ff,$ff,$ff,$f0,$f0	; $dc23 (*)
   1584  0c28				   Ldc28
   1585  0c28		       06 06 06 06*	      .byte.b	$06,$06,$06,$06,$06,$06,$48,$68	; $dc28 (*)
   1586  0c30		       89 00 00 	      .byte.b	$89,$00,$00	; $dc30 (*)
   1587  0c33				   Ldc33
   1588  0c33		       00 00 00 00*	      .byte.b	$00,$00,$00,$00,$00,$00,$fd,$fd	; $dc33 (*)
   1589  0c3b		       fd fe fe 	      .byte.b	$fd,$fe,$fe	; $dc3b (*)
   1590  0c3e				   Ldc3e
   1591  0c3e		       20 20 20 20*	      .byte.b	$20,$20,$20,$20,$20,$20,$20,$b7	; $dc3e (*)
   1592  0c46		       9b 78 78 	      .byte.b	$9b,$78,$78	; $dc46 (*)
   1593  0c49				   Ldc49
   1594  0c49		       00 00 00 00*	      .byte.b	$00,$00,$00,$00,$00,$00,$fd,$fd	; $dc49 (*)
   1595  0c51		       fd fe fe 	      .byte.b	$fd,$fe,$fe	; $dc51 (*)
   1596  0c54				   Ldc54
   1597  0c54		       01 02 04 08*	      .byte.b	$01,$02,$04,$08,$10,$20,$40,$80	; $dc54 (*)
   1598  0c5c				   Ldc5c
   1599  0c5c		       fe fd fb f7*	      .byte.b	$fe,$fd,$fb,$f7,$ef,$df,$bf,$7f	; $dc5c (*)
   1600  0c64				   Ldc64
   1601  0c64		       00 00 00 00*	      .byte.b	$00,$00,$00,$00,$08,$00,$02,$0a	; $dc64 (*)
   1602  0c6c		       0c 0e 01 03*	      .byte.b	$0c,$0e,$01,$03,$04,$06,$05,$07	; $dc6c (*)
   1603  0c74		       0d		      .byte.b	$0d	; $dc74 (*)
   1604  0c75				   Ldc75
   1605  0c75		       0f		      .byte.b	$0f	; $dc75 (*)
   1606  0c76				   Ldc76
   1607  0c76		       0b d7 da d7*	      .byte.b	$0b,$d7,$da,$d7,$da,$5d,$da,$bf	; $dc76 (*)
   1608  0c7e		       da d7 da d7*	      .byte.b	$da,$d7,$da,$d7,$da,$d7,$da,$d7	; $dc7e (*)
   1609  0c86		       da d7 da 9d*	      .byte.b	$da,$d7,$da,$9d,$da,$ac,$da,$d7	; $dc86 (*)
   1610  0c8e		       da d7 da d7*	      .byte.b	$da,$d7,$da,$d7,$da,$d7,$da,$66	; $dc8e (*)
   1611  0c96		       da 6e da 66*	      .byte.b	$da,$6e,$da,$66,$da,$b3,$d2,$ea	; $dc96 (*)
   1612  0c9e		       d1 91 d2 49*	      .byte.b	$d1,$91,$d2,$49,$d2,$b3,$d2,$c3	; $dc9e (*)
   1613  0ca6		       d1 8d d2 b8*	      .byte.b	$d1,$8d,$d2,$b8,$d1,$34,$d3,$b3	; $dca6 (*)
   1614  0cae		       d2 91 d1 8d*	      .byte.b	$d2,$91,$d1,$8d,$d1,$61,$d1,$73	; $dcae (*)
   1615  0cb6		       d3 73 d3 20*	      .byte.b	$d3,$73,$d3,$20,$d3,$73,$d3,$73	; $dcb6 (*)
   1616  0cbe		       d3 56 d3 01*	      .byte.b	$d3,$56,$d3,$01,$d3,$56,$d3,$34	; $dcbe (*)
   1617  0cc6		       d3 73 d3 69*	      .byte.b	$d3,$73,$d3,$69,$d3,$73,$d3,$73	; $dcc6 (*)
   1618  0cce		       d3 73 d3 73*	      .byte.b	$d3,$73,$d3,$73,$d3,$6e,$d3,$73	; $dcce (*)
   1619  0cd6		       d3 f1 d2 73*	      .byte.b	$d3,$f1,$d2,$73,$d3,$73,$d3,$73	; $dcd6 (*)
   1620  0cde		       d3 73 d3 cd*	      .byte.b	$d3,$73,$d3,$cd,$d2,$6e,$d3,$73	; $dcde (*)
   1621  0ce6		       d3 73 d3 	      .byte.b	$d3,$73,$d3	; $dce6 (*)
   1622  0ce9
   1623  0ce9				   Ldce9
   1624  0ce9		       a6 c4		      ldx	ram_C4	;3	    *
   1625  0ceb		       e0 06		      cpx	#$06	;2	    *
   1626  0ced		       90 02		      bcc	Ldcf1	;2/3	    *
   1627  0cef		       18		      clc		;2	    *
   1628  0cf0		       60		      rts		;6   =  15 *
   1629  0cf1
   1630  0cf1				   Ldcf1
   1631  0cf1		       a2 0a		      ldx	#$0a	;2   =   2 *
   1632  0cf3				   Ldcf3
   1633  0cf3		       b4 b7		      ldy	inv_slot1_lo,x	;4	    *
   1634  0cf5		       f0 05		      beq	Ldcfc	;2/3	    *
   1635  0cf7		       ca		      dex		;2	    *
   1636  0cf8		       ca		      dex		;2	    *
   1637  0cf9		       10 f8		      bpl	Ldcf3	;2/3	    *
   1638  0cfb		       00		      brk		;7   =  19 *
   1639  0cfc
   1640  0cfc				   Ldcfc
   1641  0cfc		       a8		      tay		;2	    *
   1642  0cfd		       0a		      asl		;2	    *
   1643  0cfe		       0a		      asl		;2	    *
   1644  0cff		       0a		      asl		;2	    *
   1645  0d00		       95 b7		      sta	inv_slot1_lo,x	;4	    *
   1646  0d02		       a5 c4		      lda	ram_C4	;3	    *
   1647  0d04		       d0 04		      bne	Ldd0a	;2/3	    *
   1648  0d06		       86 c3		      stx	cursor_pos	;3	    *
   1649  0d08		       84 c5		      sty	current_inv	;3   =  23 *
   1650  0d0a				   Ldd0a
   1651  0d0a		       e6 c4		      inc	ram_C4	;5	    *
   1652  0d0c		       c0 04		      cpy	#$04	;2	    *
   1653  0d0e		       90 05		      bcc	Ldd15	;2/3	    *
   1654  0d10		       98		      tya		;2	    *
   1655  0d11		       aa		      tax		;2	    *
   1656  0d12		       20 2f dd 	      jsr	Ldd2f	;6   =  19 *
   1657  0d15				   Ldd15
   1658  0d15		       a9 0c		      lda	#$0c	;2	    *
   1659  0d17		       85 a2		      sta	ram_A2	;3	    *
   1660  0d19		       38		      sec		;2	    *
   1661  0d1a		       60		      rts		;6   =  13 *
   1662  0d1b
   1663  0d1b				   Ldd1b
   1664  0d1b		       bd 64 dc 	      lda	Ldc64,x	;4	    *
   1665  0d1e		       4a		      lsr		;2	    *
   1666  0d1f		       a8		      tay		;2	    *
   1667  0d20		       b9 5c dc 	      lda	Ldc5c,y	;4	    *
   1668  0d23		       b0 05		      bcs	Ldd2a	;2/3	    *
   1669  0d25		       25 c6		      and	ram_C6	;3	    *
   1670  0d27		       85 c6		      sta	ram_C6	;3	    *
   1671  0d29		       60		      rts		;6   =  26 *
   1672  0d2a
   1673  0d2a				   Ldd2a
   1674  0d2a		       25 c7		      and	ram_C7	;3	    *
   1675  0d2c		       85 c7		      sta	ram_C7	;3	    *
   1676  0d2e		       60		      rts		;6   =  12 *
   1677  0d2f
   1678  0d2f				   Ldd2f
   1679  0d2f		       bd 64 dc 	      lda	Ldc64,x	;4	    *
   1680  0d32		       4a		      lsr		;2	    *
   1681  0d33		       aa		      tax		;2	    *
   1682  0d34		       bd 54 dc 	      lda	Ldc54,x	;4	    *
   1683  0d37		       b0 05		      bcs	Ldd3e	;2/3	    *
   1684  0d39		       05 c6		      ora	ram_C6	;3	    *
   1685  0d3b		       85 c6		      sta	ram_C6	;3	    *
   1686  0d3d		       60		      rts		;6   =  26 *
   1687  0d3e
   1688  0d3e				   Ldd3e
   1689  0d3e		       05 c7		      ora	ram_C7	;3	    *
   1690  0d40		       85 c7		      sta	ram_C7	;3	    *
   1691  0d42		       60		      rts		;6   =  12 *
   1692  0d43
   1693  0d43		       bd 64 dc 4a*	      .byte.b	$bd,$64,$dc,$4a,$a8,$b9,$54,$dc	; $dd43 (*)
   1694  0d4b		       b0 06 25 c6*	      .byte.b	$b0,$06,$25,$c6,$f0,$01,$38,$60	; $dd4b (*)
   1695  0d53		       25 c7 d0 fb*	      .byte.b	$25,$c7,$d0,$fb,$18,$60	; $dd53 (*)
   1696  0d59
   1697  0d59				   Ldd59
   1698  0d59		       29 1f		      and	#$1f	;2	   
   1699  0d5b		       aa		      tax		;2	   
   1700  0d5c		       a5 98		      lda	ram_98	;3	   
   1701  0d5e		       e0 0c		      cpx	#$0c	;2	   
   1702  0d60		       b0 05		      bcs	Ldd67	;2/3	   
   1703  0d62		       7d e5 df 	      adc	Ldfe5,x	;4	   
   1704  0d65		       85 98		      sta	ram_98	;3   =  18
   1705  0d67				   Ldd67
   1706  0d67		       60		      rts		;6   =   6
   1707  0d68
   1708  0d68				   game_start
   1709  0d68		       78		      sei		;Turn off interrupts	     
   1710  0d69		       d8		      cld		;Clear Decimal flag (No BCD)	     
   1711  0d6a		       a2 ff		      ldx	#$ff	;	  
   1712  0d6c		       9a		      txs		;Reset the stack pointer	 
   1713  0d6d		       e8		      inx		;Clear X	 
   1714  0d6e		       8a		      txa		;Clear A 
   1715  0d6f				   clear_zp
   1716  0d6f		       95 00		      sta	zero_page,x
   1717  0d71		       ca		      dex
   1718  0d72		       d0 fb		      bne	clear_zp
   1719  0d74
   1720  0d74		       ca		      dex		;x = $FF	 
   1721  0d75		       86 9e		      stx	ram_9E	;3	   
   1722  0d77		       a9 fb		      lda	#$fb	;2	   
   1723  0d79		       85 b8		      sta	inv_slot1_hi	;3	   
   1724  0d7b		       85 ba		      sta	inv_slot2_hi	;3	   
   1725  0d7d		       85 bc		      sta	inv_slot3_hi	;3	   
   1726  0d7f		       85 be		      sta	inv_slot4_hi	;3	   
   1727  0d81		       85 c0		      sta	pwatch_Addr	;3	   
   1728  0d83		       85 c2		      sta	inv_slot6_hi	;3	   
   1729  0d85		       a9 60		      lda	#$60	;2	   
   1730  0d87		       85 b7		      sta	inv_slot1_lo	;3	   
   1731  0d89		       a9 48		      lda	#$48	;2	   
   1732  0d8b		       85 b9		      sta	inv_slot2_lo	;3	   
   1733  0d8d		       a9 d8		      lda	#$d8	;2	   
   1734  0d8f		       85 bd		      sta	inv_slot4_lo	;3	   
   1735  0d91		       a9 08		      lda	#$08	;2	   
   1736  0d93		       85 bb		      sta	inv_slot3_lo	;3	   
   1737  0d95		       a9 e0		      lda	#$e0	;2	   
   1738  0d97		       85 bf		      sta	pwatch_state	;3	   
   1739  0d99		       a9 0d		      lda	#$0d	;2	   
   1740  0d9b		       85 81		      sta	room_num	;3	   
   1741  0d9d		       4a		      lsr		;2	   
   1742  0d9e		       85 a0		      sta	num_bullets	; Load 6 bullets	  
   1743  0da0		       20 78 d8 	      jsr	Ld878	;6	   
   1744  0da3		       4c dd d3 	      jmp	Ld3dd	;3   =  77
   1745  0da6
   1746  0da6				   reset_vars
   1747  0da6		       a9 20		      lda	#$20	;2	    *
   1748  0da8		       85 b7		      sta	inv_slot1_lo	;3	    *
   1749  0daa		       4a		      lsr		;2	    *
   1750  0dab		       4a		      lsr		;2	    *
   1751  0dac		       4a		      lsr		;2	    *
   1752  0dad		       85 c5		      sta	current_inv	;3	    *
   1753  0daf		       e6 c4		      inc	ram_C4	;5	    *
   1754  0db1		       a9 00		      lda	#$00	;2	    *
   1755  0db3		       85 b9		      sta	inv_slot2_lo	;3	    *
   1756  0db5		       85 bb		      sta	inv_slot3_lo	;3	    *
   1757  0db7		       85 bd		      sta	inv_slot4_lo	;3	    *
   1758  0db9		       85 bf		      sta	pwatch_state	;3	    *
   1759  0dbb		       a9 64		      lda	#$64	;2	    *
   1760  0dbd		       85 9e		      sta	ram_9E	;3	    *
   1761  0dbf		       a9 58		      lda	#$58	;2	    *
   1762  0dc1		       85 d9		      sta	indy_anim	;3	    *
   1763  0dc3		       a9 fa		      lda	#$fa	;2	    *
   1764  0dc5		       85 da		      sta	ram_DA	;3	    *
   1765  0dc7		       a9 4c		      lda	#$4c	;2	    *
   1766  0dc9		       85 c9		      sta	indy_x	;3	    *
   1767  0dcb		       a9 0f		      lda	#$0f	;2	    *
   1768  0dcd		       85 cf		      sta	indy_y	;3	    *
   1769  0dcf		       a9 02		      lda	#$02	;2	    *
   1770  0dd1		       85 81		      sta	room_num	;3	    *
   1771  0dd3		       85 9f		      sta	lives_left	;3	    *
   1772  0dd5		       20 78 d8 	      jsr	Ld878	;6	    *
   1773  0dd8		       4c 0d d8 	      jmp	Ld80d	;3   =  75 *
   1774  0ddb
   1775  0ddb				   Ldddb
   1776  0ddb		       a5 9e		      lda	ram_9E	;3	    *
   1777  0ddd		       38		      sec		;2	    *
   1778  0dde		       e5 a7		      sbc	shovel_used	;3	    *
   1779  0de0		       e5 a8		      sbc	parachute_used	;3	    *
   1780  0de2		       e5 a9		      sbc	ankh_used	;3	    *
   1781  0de4		       e5 aa		      sbc	yar_found	;3	    *
   1782  0de6		       e5 9f		      sbc	lives_left	;3	    *
   1783  0de8		       e5 ab		      sbc	ark_found	;3	    *
   1784  0dea		       e5 ad		      sbc	mesa_entered	;3	    *
   1785  0dec		       e5 ae		      sbc	unknown_action	;3	    *
   1786  0dee		       18		      clc		;2	    *
   1787  0def		       65 a5		      adc	grenade_used	;3	    *
   1788  0df1		       65 a6		      adc	escape_hatch_used	;3	    *
   1789  0df3		       65 ac		      adc	thief_shot	;3	    *
   1790  0df5		       85 9e		      sta	ram_9E	;3	    *
   1791  0df7		       60		      rts		;6   =  49 *
   1792  0df8
   1793  0df8		       00 00 00 00*	      .byte.b	$00,$00,$00,$00,$00,$00,$00,$00	; $ddf8 (*)
   1794  0e00				   Lde00
   1795  0e00		       ff ff ff ff*	      .byte.b	$ff,$ff,$ff,$ff,$ff,$ff,$ff,$f8	; $de00 (*)
   1796  0e08		       ff ff ff ff*	      .byte.b	$ff,$ff,$ff,$ff,$ff,$4f,$4f,$4f	; $de08 (*)
   1797  0e10		       4f 4f 4f 4f*	      .byte.b	$4f,$4f,$4f,$4f,$4f,$4f,$4f,$4f	; $de10 (*)
   1798  0e18		       44 44 0f 0f*	      .byte.b	$44,$44,$0f,$0f,$1c,$0f,$0f,$18	; $de18 (*)
   1799  0e20		       0f 0f 0f 0f*	      .byte.b	$0f,$0f,$0f,$0f,$0f,$12,$12,$89	; $de20 (*)
   1800  0e28		       89 8c 89 89*	      .byte.b	$89,$8c,$89,$89,$86,$89,$89,$89	; $de28 (*)
   1801  0e30		       89 89 86 86	      .byte.b	$89,$89,$86,$86	; $de30 (*)
   1802  0e34				   Lde34
   1803  0e34		       ff fd ff ff*	      .byte.b	$ff,$fd,$ff,$ff,$fd,$ff,$ff,$ff	; $de34 (*)
   1804  0e3c		       fd 01 fd 04*	      .byte.b	$fd,$01,$fd,$04,$fd,$ff,$fd,$01	; $de3c (*)
   1805  0e44		       ff 0b 0a ff*	      .byte.b	$ff,$0b,$0a,$ff,$ff,$ff,$04,$ff	; $de44 (*)
   1806  0e4c		       fd ff fd ff*	      .byte.b	$fd,$ff,$fd,$ff,$ff,$ff,$ff,$ff	; $de4c (*)
   1807  0e54		       fe fd fd ff*	      .byte.b	$fe,$fd,$fd,$ff,$ff,$ff,$ff,$ff	; $de54 (*)
   1808  0e5c		       fd fd fe ff*	      .byte.b	$fd,$fd,$fe,$ff,$ff,$fe,$fd,$fd	; $de5c (*)
   1809  0e64		       ff ff ff ff	      .byte.b	$ff,$ff,$ff,$ff	; $de64 (*)
   1810  0e68				   Lde68
   1811  0e68		       00 1e 00 00*	      .byte.b	$00,$1e,$00,$00,$11,$00,$00,$00	; $de68 (*)
   1812  0e70		       11 00 10 00*	      .byte.b	$11,$00,$10,$00,$60,$00,$11,$00	; $de70 (*)
   1813  0e78		       00 00 00 00*	      .byte.b	$00,$00,$00,$00,$00,$00,$00,$00	; $de78 (*)
   1814  0e80		       70 00 12 00*	      .byte.b	$70,$00,$12,$00,$00,$00,$00,$00	; $de80 (*)
   1815  0e88		       30 15 24 00*	      .byte.b	$30,$15,$24,$00,$00,$00,$00,$00	; $de88 (*)
   1816  0e90		       18 03 27 00*	      .byte.b	$18,$03,$27,$00,$00,$30,$20,$12	; $de90 (*)
   1817  0e98		       00 00 00 00	      .byte.b	$00,$00,$00,$00	; $de98 (*)
   1818  0e9c				   Lde9c
   1819  0e9c		       00 7a 00 00*	      .byte.b	$00,$7a,$00,$00,$88,$00,$00,$00	; $de9c (*)
   1820  0ea4		       88 00 80 00*	      .byte.b	$88,$00,$80,$00,$65,$00,$88,$00	; $dea4 (*)
   1821  0eac		       00 00 00 00*	      .byte.b	$00,$00,$00,$00,$00,$00,$00,$00	; $deac (*)
   1822  0eb4		       72 00 16 00*	      .byte.b	$72,$00,$16,$00,$00,$00,$00,$00	; $deb4 (*)
   1823  0ebc		       02 1f 2f 00*	      .byte.b	$02,$1f,$2f,$00,$00,$00,$00,$00	; $debc (*)
   1824  0ec4		       1c 40 01 00*	      .byte.b	$1c,$40,$01,$00,$00,$07,$27,$16	; $dec4 (*)
   1825  0ecc		       00 00 00 00	      .byte.b	$00,$00,$00,$00	; $decc (*)
   1826  0ed0				   Lded0
   1827  0ed0		       00 02 00 00*	      .byte.b	$00,$02,$00,$00,$09,$00,$00,$00	; $ded0 (*)
   1828  0ed8		       07 00 fc 00*	      .byte.b	$07,$00,$fc,$00,$05,$00,$09,$00	; $ded8 (*)
   1829  0ee0		       00 00 00 00*	      .byte.b	$00,$00,$00,$00,$00,$00,$00,$00	; $dee0 (*)
   1830  0ee8		       03 00 ff 00*	      .byte.b	$03,$00,$ff,$00,$00,$00,$00,$00	; $dee8 (*)
   1831  0ef0		       01 06 fe 00*	      .byte.b	$01,$06,$fe,$00,$00,$00,$00,$00	; $def0 (*)
   1832  0ef8		       fb fd 0b 00*	      .byte.b	$fb,$fd,$0b,$00,$00,$08,$08,$00	; $def8 (*)
   1833  0f00		       00 00 00 00	      .byte.b	$00,$00,$00,$00	; $df00 (*)
   1834  0f04				   Ldf04
   1835  0f04		       00 4e 00 00*	      .byte.b	$00,$4e,$00,$00,$4e,$00,$00,$00	; $df04 (*)
   1836  0f0c		       4d 4e 4e 4e*	      .byte.b	$4d,$4e,$4e,$4e,$04,$01,$03,$01	; $df0c (*)
   1837  0f14		       01 01 01 01*	      .byte.b	$01,$01,$01,$01,$01,$01,$01,$01	; $df14 (*)
   1838  0f1c		       40 00 23 00*	      .byte.b	$40,$00,$23,$00,$00,$00,$00,$00	; $df1c (*)
   1839  0f24		       00 00 41 00*	      .byte.b	$00,$00,$41,$00,$00,$00,$00,$00	; $df24 (*)
   1840  0f2c		       45 00 42 00*	      .byte.b	$45,$00,$42,$00,$00,$00,$42,$23	; $df2c (*)
   1841  0f34		       28 00 00 00	      .byte.b	$28,$00,$00,$00	; $df34 (*)
   1842  0f38				   Ldf38
   1843  0f38		       00 00 00 00*	      .byte.b	$00,$00,$00,$00,$00,$00,$00,$00	; $df38 (*)
   1844  0f40		       00 00 00 00*	      .byte.b	$00,$00,$00,$00,$4c,$00,$00,$00	; $df40 (*)
   1845  0f48		       00 00 00 00*	      .byte.b	$00,$00,$00,$00,$00,$00,$00,$00	; $df48 (*)
   1846  0f50		       80 00 86 00*	      .byte.b	$80,$00,$86,$00,$00,$00,$00,$00	; $df50 (*)
   1847  0f58		       80 86 80 00*	      .byte.b	$80,$86,$80,$00,$00,$00,$00,$00	; $df58 (*)
   1848  0f60		       12 12 4c 00*	      .byte.b	$12,$12,$4c,$00,$00,$16,$80,$12	; $df60 (*)
   1849  0f68		       50 00 00 00	      .byte.b	$50,$00,$00,$00	; $df68 (*)
   1850  0f6c				   Ldf6c
   1851  0f6c		       01 ff 01 ff	      .byte.b	$01,$ff,$01,$ff	; $df6c (*)
   1852  0f70				   Ldf70
   1853  0f70		       35 09		      .byte.b	$35,$09	; $df70 (*)
   1854  0f72				   Ldf72
   1855  0f72		       00 00 42 45*	      .byte.b	$00,$00,$42,$45,$0c,$20,$04,$11	; $df72 (*)
   1856  0f7a		       10 12		      .byte.b	$10,$12	; $df7a (*)
   1857  0f7c				   Ldf7c
   1858  0f7c		       07 03 05 06*	      .byte.b	$07,$03,$05,$06,$09,$0b,$0e,$00	; $df7c (*)
   1859  0f84		       01 03 05 00*	      .byte.b	$01,$03,$05,$00,$09,$0c,$0e,$00	; $df84 (*)
   1860  0f8c		       01 04 05 00*	      .byte.b	$01,$04,$05,$00,$0a,$0c,$0f,$00	; $df8c (*)
   1861  0f94		       02 04 05 08*	      .byte.b	$02,$04,$05,$08,$0a,$0d,$0f,$00	; $df94 (*)
   1862  0f9c
   1863  0f9c				   Ldf9c
   1864  0f9c		       ad 84 02 	      lda	INTIM	;4	   
   1865  0f9f		       d0 fb		      bne	Ldf9c	;2/3	   
   1866  0fa1		       85 02		      sta	WSYNC	;3   =   9
   1867  0fa3							;---------------------------------------
   1868  0fa3		       85 02		      sta	WSYNC	;3   =   3
   1869  0fa5							;---------------------------------------
   1870  0fa5		       a9 44		      lda	#$44	;2	   
   1871  0fa7		       85 88		      sta	ram_88	;3	   
   1872  0fa9		       a9 f8		      lda	#$f8	;2	   
   1873  0fab		       85 89		      sta	ram_89	;3   =  10
   1874  0fad				   Ldfad
   1875  0fad		       a9 ad		      lda	#$ad	;2	   
   1876  0faf		       85 84		      sta	ram_84	;3	   
   1877  0fb1		       a9 f9		      lda	#$f9	;2	   
   1878  0fb3		       85 85		      sta	ram_85	;3	   
   1879  0fb5		       a9 ff		      lda	#$ff	;2	   
   1880  0fb7		       85 86		      sta	ram_86	;3	   
   1881  0fb9		       a9 4c		      lda	#$4c	;2	   
   1882  0fbb		       85 87		      sta	ram_87	;3	   
   1883  0fbd		       4c 84 00 	      jmp.w	ram_84	;3   =  23
   1884  0fc0
   1885  0fc0				   move_enemy
   1886  0fc0		       6a		      ror		;Move first bit into carry
   1887  0fc1		       b0 02		      bcs	mov_emy_right	;If 1 check if enemy shoulld go right
   1888  0fc3		       d6 ce		      dec	enemy_y,x	;Move enemy left 1 unit
   1889  0fc5				   mov_emy_right
   1890  0fc5		       6a		      ror		;Rotate next bit into carry
   1891  0fc6		       b0 02		      bcs	mov_emy_down	;if 1 check if enemy should go up
   1892  0fc8		       f6 ce		      inc	enemy_y,x	;Move enemy right 1 unit
   1893  0fca				   mov_emy_down
   1894  0fca		       6a		      ror		;Rotate next bit into carry
   1895  0fcb		       b0 02		      bcs	mov_emy_up	;if 1 check if enemy should go up
   1896  0fcd		       d6 c8		      dec	enemy_x,x	;Move enemy down 1 unit
   1897  0fcf				   mov_emy_up
   1898  0fcf		       6a		      ror		;Rotate next bit into carry
   1899  0fd0		       b0 02		      bcs	mov_eny_finish	;if 1, moves are finished
   1900  0fd2		       f6 c8		      inc	enemy_x,x	;Move enemy up 1 unit
   1901  0fd4				   mov_eny_finish
   1902  0fd4		       60		      rts		;return
   1903  0fd5
   1904  0fd5		       00 00 00 00*	      .byte.b	$00,$00,$00,$00,$00,$0a,$09,$0b	; $dfd5 (*)
   1905  0fdd		       00 06 05 07*	      .byte.b	$00,$06,$05,$07,$00,$0e,$0d,$0f	; $dfdd (*)
   1906  0fe5				   Ldfe5
   1907  0fe5		       00		      .byte.b	$00	; $dfe5 (D)
   1908  0fe6		       06 03 03 03*	      .byte.b	$06,$03,$03,$03,$00,$00,$06,$00	; $dfe6 (*)
   1909  0fee		       00 00 06 00*	      .byte.b	$00,$00,$06,$00,$00,$00,$00,$00	; $dfee (*)
   1910  0ff6		       00 00 00 	      .byte.b	$00,$00,$00	; $dff6 (*)
   1911  0ff9		       00		      .byte.b	$00	; $dff9 (D)
   1912  0ffa		       68 dd 68 dd	      .byte.b	$68,$dd,$68,$dd	; $dffa (*)
   1913  0ffe		       68		      .byte.b	$68	; $dffe (D)
   1914  0fff		       dd		      .byte.b	$dd	; $dfff (*)
   1915  1000
   1916  1000
   1917  1000							;***********************************************************
   1918  1000							;	Bank 1 / 0..1
   1919  1000							;***********************************************************
   1920  1000
   1921  1000					      SEG	CODE
   1922  1000					      ORG	$1000
   1923  1000					      RORG	$f000
   1924  1000
   1925  1000		       ad f8 ff 	      lda	Lfff8	;4   =   4
   1926  1003				   Lf003
   1927  1003		       c5 e0		      cmp	ram_E0	;3	    *
   1928  1005		       b0 13		      bcs	Lf01a	;2/3	    *
   1929  1007		       4a		      lsr		;2	    *
   1930  1008		       18		      clc		;2	    *
   1931  1009		       65 df		      adc	ram_DF	;3	    *
   1932  100b		       a8		      tay		;2	    *
   1933  100c		       85 02		      sta	WSYNC	;3   =  17 *
   1934  100e							;---------------------------------------
   1935  100e		       85 2a		      sta	HMOVE	;3	    *
   1936  1010		       b1 e1		      lda	(PF1_data),y	;5	    *
   1937  1012		       85 0e		      sta	PF1	;3	    *
   1938  1014		       b1 e3		      lda	(PF2_data),y	;5	    *
   1939  1016		       85 0f		      sta	PF2	;3	    *
   1940  1018		       90 19		      bcc	Lf033	;2/3 =  21 *
   1941  101a				   Lf01a
   1942  101a		       e5 d4		      sbc	ram_D4	;3	    *
   1943  101c		       4a		      lsr		;2	    *
   1944  101d		       4a		      lsr		;2	    *
   1945  101e		       85 02		      sta	WSYNC	;3   =  10 *
   1946  1020							;---------------------------------------
   1947  1020		       85 2a		      sta	HMOVE	;3	    *
   1948  1022		       aa		      tax		;2	    *
   1949  1023		       e4 d5		      cpx	ram_D5	;3	    *
   1950  1025		       90 06		      bcc	Lf02d	;2/3	    *
   1951  1027		       a6 d8		      ldx	ram_D8	;3	    *
   1952  1029		       a9 00		      lda	#$00	;2	    *
   1953  102b		       f0 04		      beq	Lf031	;2/3 =  17 *
   1954  102d				   Lf02d
   1955  102d		       b5 e5		      lda	ram_E5,x	;4	    *
   1956  102f		       a6 d8		      ldx	ram_D8	;3   =   7 *
   1957  1031				   Lf031
   1958  1031		       95 0e		      sta	PF1,x	;4   =   4 *
   1959  1033				   Lf033
   1960  1033		       a2 1e		      ldx	#$1e	;2	    *
   1961  1035		       9a		      txs		;2	    *
   1962  1036		       a5 80		      lda	scan_line	;3	    *
   1963  1038		       38		      sec		;2	    *
   1964  1039		       e5 cf		      sbc	indy_y	;3	    *
   1965  103b		       c5 db		      cmp	indy_h	;3	    *
   1966  103d		       b0 3a		      bcs	Lf079	;2/3	    *
   1967  103f		       a8		      tay		;2	    *
   1968  1040		       b1 d9		      lda	(indy_anim),y	;5	    *
   1969  1042		       aa		      tax		;2   =  26 *
   1970  1043				   Lf043
   1971  1043		       a5 80		      lda	scan_line	;3	    *
   1972  1045		       38		      sec		;2	    *
   1973  1046		       e5 ce		      sbc	enemy_y	;3	    *
   1974  1048		       c5 dc		      cmp	snake_y	;3	    *
   1975  104a		       b0 31		      bcs	Lf07d	;2/3	    *
   1976  104c		       a8		      tay		;2	    *
   1977  104d		       b1 dd		      lda	(emy_anim),y	;5	    *
   1978  104f		       a8		      tay		;2   =  22 *
   1979  1050				   Lf050
   1980  1050		       a5 80		      lda	scan_line	;3	    *
   1981  1052		       85 02		      sta	WSYNC	;3   =   6 *
   1982  1054							;---------------------------------------
   1983  1054		       85 2a		      sta	HMOVE	;3	    *
   1984  1056		       c5 d1		      cmp	ram_D1	;3	    *
   1985  1058		       08		      php		;3	    *
   1986  1059		       c5 d0		      cmp	ram_D0	;3	    *
   1987  105b		       08		      php		;3	    *
   1988  105c		       86 1c		      stx	GRP1	;3	    *
   1989  105e		       84 1b		      sty	GRP0	;3	    *
   1990  1060		       38		      sec		;2	    *
   1991  1061		       e5 d2		      sbc	ram_D2	;3	    *
   1992  1063		       c9 08		      cmp	#$08	;2	    *
   1993  1065		       b0 07		      bcs	Lf06e	;2/3	    *
   1994  1067		       a8		      tay		;2	    *
   1995  1068		       b1 d6		      lda	(ram_D6),y	;5	    *
   1996  106a		       85 1f		      sta	ENABL	;3	    *
   1997  106c		       85 24		      sta	HMBL	;3   =  43 *
   1998  106e				   Lf06e
   1999  106e		       e6 80		      inc	scan_line	;5	    *
   2000  1070		       a5 80		      lda	scan_line	;3	    *
   2001  1072		       c9 50		      cmp	#$50	;2	    *
   2002  1074		       90 8d		      bcc	Lf003	;2/3	    *
   2003  1076		       4c ea f1 	      jmp	Lf1ea	;3   =  15 *
   2004  1079
   2005  1079				   Lf079
   2006  1079		       a2 00		      ldx	#$00	;2	    *
   2007  107b		       f0 c6		      beq	Lf043	;2/3 =   4 *
   2008  107d				   Lf07d
   2009  107d		       a0 00		      ldy	#$00	;2	    *
   2010  107f		       f0 cf		      beq	Lf050	;2/3 =   4 *
   2011  1081				   Lf081
   2012  1081		       e0 4f		      cpx	#$4f	;2	    *
   2013  1083		       90 03		      bcc	Lf088	;2/3	    *
   2014  1085		       4c ea f1 	      jmp	Lf1ea	;3   =   7 *
   2015  1088
   2016  1088				   Lf088
   2017  1088		       a9 00		      lda	#$00	;2	    *
   2018  108a		       f0 18		      beq	Lf0a4	;2/3 =   4 *
   2019  108c				   Lf08c
   2020  108c		       b1 dd		      lda	(emy_anim),y	;5	    *
   2021  108e		       30 0c		      bmi	Lf09c	;2/3	    *
   2022  1090		       c4 df		      cpy	ram_DF	;3	    *
   2023  1092		       b0 ed		      bcs	Lf081	;2/3	    *
   2024  1094		       c4 ce		      cpy	enemy_y	;3	    *
   2025  1096		       90 f0		      bcc	Lf088	;2/3	    *
   2026  1098		       85 1b		      sta	GRP0	;3	    *
   2027  109a		       b0 08		      bcs	Lf0a4	;2/3 =  22 *
   2028  109c				   Lf09c
   2029  109c		       0a		      asl		;2	    *
   2030  109d		       a8		      tay		;2	    *
   2031  109e		       29 02		      and	#$02	;2	    *
   2032  10a0		       aa		      tax		;2	    *
   2033  10a1		       98		      tya		;2	    *
   2034  10a2		       81 e1		      sta	(PF1_data,x)	;6   =  16 *
   2035  10a4				   Lf0a4
   2036  10a4		       e6 80		      inc	scan_line	;5	    *
   2037  10a6		       a6 80		      ldx	scan_line	;3	    *
   2038  10a8		       a9 02		      lda	#$02	;2	    *
   2039  10aa		       e4 d0		      cpx	ram_D0	;3	    *
   2040  10ac		       90 04		      bcc	Lf0b2	;2/3	    *
   2041  10ae		       e4 e0		      cpx	ram_E0	;3	    *
   2042  10b0		       90 01		      bcc	Lf0b3	;2/3 =  20 *
   2043  10b2				   Lf0b2
   2044  10b2		       6a		      ror		;2   =   2 *
   2045  10b3				   Lf0b3
   2046  10b3		       85 1d		      sta	ENAM0	;3	    *
   2047  10b5		       85 02		      sta	WSYNC	;3   =   6 *
   2048  10b7							;---------------------------------------
   2049  10b7		       85 2a		      sta	HMOVE	;3	    *
   2050  10b9		       8a		      txa		;2	    *
   2051  10ba		       38		      sec		;2	    *
   2052  10bb		       e5 d5		      sbc	ram_D5	;3	    *
   2053  10bd		       c9 10		      cmp	#$10	;2	    *
   2054  10bf		       b0 3e		      bcs	Lf0ff	;2/3	    *
   2055  10c1		       a8		      tay		;2	    *
   2056  10c2		       c9 08		      cmp	#$08	;2	    *
   2057  10c4		       90 35		      bcc	Lf0fb	;2/3	    *
   2058  10c6		       a5 d8		      lda	ram_D8	;3	    *
   2059  10c8		       85 d6		      sta	ram_D6	;3   =  26 *
   2060  10ca				   Lf0ca
   2061  10ca		       b1 d6		      lda	(ram_D6),y	;5	    *
   2062  10cc		       85 24		      sta	HMBL	;3   =   8 *
   2063  10ce				   Lf0ce
   2064  10ce		       a0 00		      ldy	#$00	;2	    *
   2065  10d0		       8a		      txa		;2	    *
   2066  10d1		       c5 d1		      cmp	ram_D1	;3	    *
   2067  10d3		       d0 01		      bne	Lf0d6	;2/3	    *
   2068  10d5		       88		      dey		;2   =  11 *
   2069  10d6				   Lf0d6
   2070  10d6		       84 1e		      sty	ENAM1	;3	    *
   2071  10d8		       38		      sec		;2	    *
   2072  10d9		       e5 cf		      sbc	indy_y	;3	    *
   2073  10db		       c5 db		      cmp	indy_h	;3	    *
   2074  10dd		       b0 28		      bcs	Lf107	;2/3!	    *
   2075  10df		       a8		      tay		;2	    *
   2076  10e0		       b1 d9		      lda	(indy_anim),y	;5   =  20 *
   2077  10e2				   Lf0e2
   2078  10e2		       a4 80		      ldy	scan_line	;3	    *
   2079  10e4		       85 1c		      sta	GRP1	;3	    *
   2080  10e6		       85 02		      sta	WSYNC	;3   =   9 *
   2081  10e8							;---------------------------------------
   2082  10e8		       85 2a		      sta	HMOVE	;3	    *
   2083  10ea		       a9 02		      lda	#$02	;2	    *
   2084  10ec		       e4 d2		      cpx	ram_D2	;3	    *
   2085  10ee		       90 09		      bcc	Lf0f9	;2/3	    *
   2086  10f0		       e4 dc		      cpx	snake_y	;3	    *
   2087  10f2		       90 01		      bcc	Lf0f5	;2/3 =  15 *
   2088  10f4				   Lf0f4
   2089  10f4		       6a		      ror		;2   =   2 *
   2090  10f5				   Lf0f5
   2091  10f5		       85 1f		      sta	ENABL	;3	    *
   2092  10f7		       90 93		      bcc	Lf08c	;2/3 =   5 *
   2093  10f9				   Lf0f9
   2094  10f9		       90 f9		      bcc	Lf0f4	;2/3 =   2 *
   2095  10fb				   Lf0fb
   2096  10fb		       ea		      nop		;2	    *
   2097  10fc		       4c ca f0 	      jmp	Lf0ca	;3   =   5 *
   2098  10ff
   2099  10ff				   Lf0ff
   2100  10ff		       48		      pha		;3	    *
   2101  1100		       68		      pla		;4	    *
   2102  1101		       48		      pha		;3	    *
   2103  1102		       68		      pla		;4	    *
   2104  1103		       ea		      nop		;2	    *
   2105  1104		       4c ce f0 	      jmp	Lf0ce	;3   =  19 *
   2106  1107
   2107  1107				   Lf107
   2108  1107		       a9 00		      lda	#$00	;2	    *
   2109  1109		       f0 d7		      beq	Lf0e2	;2/3!=   4 *
   2110  110b				   Lf10b
   2111  110b		       e8		      inx		;2	    *
   2112  110c		       85 2b		      sta	HMCLR	;3	    *
   2113  110e		       e0 a0		      cpx	#$a0	;2	    *
   2114  1110		       90 2e		      bcc	Lf140	;2/3	    *
   2115  1112		       4c ea f1 	      jmp	Lf1ea	;3   =  12 *
   2116  1115
   2117  1115				   Lf115
   2118  1115		       85 02		      sta	WSYNC	;3   =   3 *
   2119  1117							;---------------------------------------
   2120  1117		       85 2a		      sta	HMOVE	;3	    *
   2121  1119		       e8		      inx		;2	    *
   2122  111a		       a5 84		      lda	ram_84	;3	    *
   2123  111c		       85 1b		      sta	GRP0	;3	    *
   2124  111e		       a5 85		      lda	ram_85	;3	    *
   2125  1120		       85 06		      sta	COLUP0	;3	    *
   2126  1122		       8a		      txa		;2	    *
   2127  1123		       a2 1f		      ldx	#$1f	;2	    *
   2128  1125		       9a		      txs		;2	    *
   2129  1126		       aa		      tax		;2	    *
   2130  1127		       4a		      lsr		;2	    *
   2131  1128		       c5 d2		      cmp	ram_D2	;3	    *
   2132  112a		       08		      php		;3	    *
   2133  112b		       c5 d1		      cmp	ram_D1	;3	    *
   2134  112d		       08		      php		;3	    *
   2135  112e		       c5 d0		      cmp	ram_D0	;3	    *
   2136  1130		       08		      php		;3	    *
   2137  1131		       38		      sec		;2	    *
   2138  1132		       e5 cf		      sbc	indy_y	;3	    *
   2139  1134		       c5 db		      cmp	indy_h	;3	    *
   2140  1136		       b0 d3		      bcs	Lf10b	;2/3	    *
   2141  1138		       a8		      tay		;2	    *
   2142  1139		       b1 d9		      lda	(indy_anim),y	;5	    *
   2143  113b		       85 2b		      sta	HMCLR	;3	    *
   2144  113d		       e8		      inx		;2	    *
   2145  113e		       85 1c		      sta	GRP1	;3   =  70 *
   2146  1140				   Lf140
   2147  1140		       85 02		      sta	WSYNC	;3   =   3 *
   2148  1142							;---------------------------------------
   2149  1142		       85 2a		      sta	HMOVE	;3	    *
   2150  1144		       24 d4		      bit	ram_D4	;3	    *
   2151  1146		       10 0f		      bpl	Lf157	;2/3	    *
   2152  1148		       a4 89		      ldy	ram_89	;3	    *
   2153  114a		       a5 88		      lda	ram_88	;3	    *
   2154  114c		       46 d4		      lsr	ram_D4	;5   =  19 *
   2155  114e				   Lf14e
   2156  114e		       88		      dey		;2	    *
   2157  114f		       10 fd		      bpl	Lf14e	;2/3	    *
   2158  1151		       85 10		      sta	RESP0	;3	    *
   2159  1153		       85 20		      sta	HMP0	;3	    *
   2160  1155		       30 be		      bmi	Lf115	;2/3 =  12 *
   2161  1157				   Lf157
   2162  1157		       50 1e		      bvc	Lf177	;2/3	    *
   2163  1159		       8a		      txa		;2	    *
   2164  115a		       29 0f		      and	#$0f	;2	    *
   2165  115c		       a8		      tay		;2	    *
   2166  115d		       b1 dd		      lda	(emy_anim),y	;5	    *
   2167  115f		       85 1b		      sta	GRP0	;3	    *
   2168  1161		       b1 d6		      lda	(ram_D6),y	;5	    *
   2169  1163		       85 06		      sta	COLUP0	;3	    *
   2170  1165		       c8		      iny		;2	    *
   2171  1166		       b1 dd		      lda	(emy_anim),y	;5	    *
   2172  1168		       85 84		      sta	ram_84	;3	    *
   2173  116a		       b1 d6		      lda	(ram_D6),y	;5	    *
   2174  116c		       85 85		      sta	ram_85	;3	    *
   2175  116e		       c4 dc		      cpy	snake_y	;3	    *
   2176  1170		       90 02		      bcc	Lf174	;2/3	    *
   2177  1172		       46 d4		      lsr	ram_D4	;5   =  52 *
   2178  1174				   Lf174
   2179  1174		       4c 15 f1 	      jmp	Lf115	;3   =   3 *
   2180  1177
   2181  1177				   Lf177
   2182  1177		       a9 20		      lda	#$20	;2	    *
   2183  1179		       24 d4		      bit	ram_D4	;3	    *
   2184  117b		       f0 2a		      beq	Lf1a7	;2/3	    *
   2185  117d		       8a		      txa		;2	    *
   2186  117e		       4a		      lsr		;2	    *
   2187  117f		       4a		      lsr		;2	    *
   2188  1180		       4a		      lsr		;2	    *
   2189  1181		       4a		      lsr		;2	    *
   2190  1182		       4a		      lsr		;2	    *
   2191  1183		       b0 90		      bcs	Lf115	;2/3	    *
   2192  1185		       a8		      tay		;2	    *
   2193  1186		       84 87		      sty	ram_87	;3	    *
   2194  1188		       b9 df 00 	      lda.wy	ram_DF,y	;4	    *
   2195  118b		       85 0b		      sta	REFP0	;3	    *
   2196  118d		       85 04		      sta	NUSIZ0	;3	    *
   2197  118f		       85 86		      sta	ram_86	;3	    *
   2198  1191		       10 0f		      bpl	Lf1a2	;2/3	    *
   2199  1193		       a5 96		      lda	ram_96	;3	    *
   2200  1195		       85 dd		      sta	emy_anim	;3	    *
   2201  1197		       a9 65		      lda	#$65	;2	    *
   2202  1199		       85 d6		      sta	ram_D6	;3	    *
   2203  119b		       a9 00		      lda	#$00	;2	    *
   2204  119d		       85 d4		      sta	ram_D4	;3	    *
   2205  119f		       4c 15 f1 	      jmp	Lf115	;3   =  60 *
   2206  11a2
   2207  11a2				   Lf1a2
   2208  11a2		       46 d4		      lsr	ram_D4	;5	    *
   2209  11a4		       4c 15 f1 	      jmp	Lf115	;3   =   8 *
   2210  11a7
   2211  11a7				   Lf1a7
   2212  11a7		       4a		      lsr		;2	    *
   2213  11a8		       24 d4		      bit	ram_D4	;3	    *
   2214  11aa		       f0 22		      beq	Lf1ce	;2/3	    *
   2215  11ac		       a4 87		      ldy	ram_87	;3	    *
   2216  11ae		       a9 08		      lda	#$08	;2	    *
   2217  11b0		       25 86		      and	ram_86	;3	    *
   2218  11b2		       f0 02		      beq	Lf1b6	;2/3	    *
   2219  11b4		       a9 03		      lda	#$03	;2   =  19 *
   2220  11b6				   Lf1b6
   2221  11b6		       59 e5 00 	      eor.wy	ram_E5,y	;4	    *
   2222  11b9		       29 03		      and	#$03	;2	    *
   2223  11bb		       a8		      tay		;2	    *
   2224  11bc		       b9 40 fc 	      lda	Lfc40,y	;4	    *
   2225  11bf		       85 dd		      sta	emy_anim	;3	    *
   2226  11c1		       a9 44		      lda	#$44	;2	    *
   2227  11c3		       85 d6		      sta	ram_D6	;3	    *
   2228  11c5		       a9 0f		      lda	#$0f	;2	    *
   2229  11c7		       85 dc		      sta	snake_y	;3	    *
   2230  11c9		       46 d4		      lsr	ram_D4	;5	    *
   2231  11cb		       4c 15 f1 	      jmp	Lf115	;3   =  33 *
   2232  11ce
   2233  11ce				   Lf1ce
   2234  11ce		       8a		      txa		;2	    *
   2235  11cf		       29 1f		      and	#$1f	;2	    *
   2236  11d1		       c9 0c		      cmp	#$0c	;2	    *
   2237  11d3		       f0 03		      beq	Lf1d8	;2/3	    *
   2238  11d5		       4c 15 f1 	      jmp	Lf115	;3   =  11 *
   2239  11d8
   2240  11d8				   Lf1d8
   2241  11d8		       a4 87		      ldy	ram_87	;3	    *
   2242  11da		       b9 ee 00 	      lda.wy	ram_EE,y	;4	    *
   2243  11dd		       85 88		      sta	ram_88	;3	    *
   2244  11df		       29 0f		      and	#$0f	;2	    *
   2245  11e1		       85 89		      sta	ram_89	;3	    *
   2246  11e3		       a9 80		      lda	#$80	;2	    *
   2247  11e5		       85 d4		      sta	ram_D4	;3	    *
   2248  11e7		       4c 15 f1 	      jmp	Lf115	;3   =  23 *
   2249  11ea
   2250  11ea				   Lf1ea
   2251  11ea		       85 02		      sta	WSYNC	;3   =   3
   2252  11ec							;---------------------------------------
   2253  11ec		       85 2a		      sta	HMOVE	;3	   
   2254  11ee		       a2 ff		      ldx	#$ff	;2	   
   2255  11f0		       86 0e		      stx	PF1	;3	   
   2256  11f2		       86 0f		      stx	PF2	;3	   
   2257  11f4		       e8		      inx		;2	   
   2258  11f5		       86 1b		      stx	GRP0	;3	   
   2259  11f7		       86 1c		      stx	GRP1	;3	   
   2260  11f9		       86 1d		      stx	ENAM0	;3	   
   2261  11fb		       86 1e		      stx	ENAM1	;3	   
   2262  11fd		       86 1f		      stx	ENABL	;3	   
   2263  11ff		       85 02		      sta	WSYNC	;3   =  31
   2264  1201							;---------------------------------------
   2265  1201		       85 2a		      sta	HMOVE	;3	   
   2266  1203		       a9 03		      lda	#$03	;2	   
   2267  1205		       a0 00		      ldy	#$00	;2	   
   2268  1207		       84 0c		      sty	REFP1	;3	   
   2269  1209		       85 04		      sta	NUSIZ0	;3	   
   2270  120b		       85 05		      sta	NUSIZ1	;3	   
   2271  120d		       85 25		      sta	VDELP0	;3	   
   2272  120f		       85 26		      sta	VDELP1	;3	   
   2273  1211		       84 1b		      sty	GRP0	;3	   
   2274  1213		       84 1c		      sty	GRP1	;3	   
   2275  1215		       84 1b		      sty	GRP0	;3	   
   2276  1217		       84 1c		      sty	GRP1	;3	   
   2277  1219		       ea		      nop		;2	   
   2278  121a		       85 10		      sta	RESP0	;3	   
   2279  121c		       85 11		      sta	RESP1	;3	   
   2280  121e		       84 21		      sty	HMP1	;3	   
   2281  1220		       a9 f0		      lda	#$f0	;2	   
   2282  1222		       85 20		      sta	HMP0	;3	   
   2283  1224		       84 0b		      sty	REFP0	;3	   
   2284  1226		       85 02		      sta	WSYNC	;3   =  56
   2285  1228							;---------------------------------------
   2286  1228		       85 2a		      sta	HMOVE	;3	   
   2287  122a		       a9 1a		      lda	#$1a	;2	   
   2288  122c		       85 06		      sta	COLUP0	;3	   
   2289  122e		       85 07		      sta	COLUP1	;3	   
   2290  1230		       a5 c3		      lda	cursor_pos	;3	   
   2291  1232		       4a		      lsr		;2	   
   2292  1233		       a8		      tay		;2	   
   2293  1234		       b9 f2 ff 	      lda	Lfff2,y	;4	   
   2294  1237		       85 24		      sta	HMBL	;3	   
   2295  1239		       29 0f		      and	#$0f	;2	   
   2296  123b		       a8		      tay		;2	   
   2297  123c		       a2 00		      ldx	#$00	;2	   
   2298  123e		       86 20		      stx	HMP0	;3	   
   2299  1240		       85 02		      sta	WSYNC	;3   =  37
   2300  1242							;---------------------------------------
   2301  1242		       86 0d		      stx	PF0	;3	   
   2302  1244		       86 09		      stx	COLUBK	;3	   
   2303  1246		       86 0e		      stx	PF1	;3	   
   2304  1248		       86 0f		      stx	PF2	;3   =  12
   2305  124a				   Lf24a
   2306  124a		       88		      dey		;2	   
   2307  124b		       10 fd		      bpl	Lf24a	;2/3	   
   2308  124d		       85 14		      sta	RESBL	;3	   
   2309  124f		       86 0a		      stx	CTRLPF	;3	   
   2310  1251		       85 02		      sta	WSYNC	;3   =  13
   2311  1253							;---------------------------------------
   2312  1253		       85 2a		      sta	HMOVE	;3	   
   2313  1255		       a9 3f		      lda	#$3f	;2	   
   2314  1257		       25 82		      and	frame_counter	;3	   
   2315  1259		       d0 12		      bne	draw_menu	;2/3	   
   2316  125b		       a9 3f		      lda	#$3f	;2	   
   2317  125d		       25 83		      and	time_of_day	;3	   
   2318  125f		       d0 0c		      bne	draw_menu	;2/3	   
   2319  1261		       a5 b5		      lda	ram_B5	;3	    *
   2320  1263		       29 0f		      and	#$0f	;2	    *
   2321  1265		       f0 06		      beq	draw_menu	;2/3	    *
   2322  1267		       c9 0f		      cmp	#$0f	;2	    *
   2323  1269		       f0 02		      beq	draw_menu	;2/3	    *
   2324  126b		       e6 b5		      inc	ram_B5	;5   =  33 *
   2325  126d				   draw_menu
   2326  126d		       85 02		      sta	WSYNC	;Draw Blank Line
   2327  126f		       a9 42		      lda	#$42	;Set red...
   2328  1271		       85 09		      sta	COLUBK	;...as the background color
   2329  1273		       85 02		      sta	WSYNC	;Draw four more scanlines
   2330  1275		       85 02		      sta	WSYNC	;
   2331  1277		       85 02		      sta	WSYNC	;
   2332  1279		       85 02		      sta	WSYNC	;
   2333  127b		       a9 07		      lda	#$07	;2	   
   2334  127d		       85 84		      sta	ram_84	;3   =   5
   2335  127f				   draw_inventory
   2336  127f		       a4 84		      ldy	ram_84	;3	   
   2337  1281		       b1 b7		      lda	(inv_slot1_lo),y	;5	   
   2338  1283		       85 1b		      sta	GRP0	;3	   
   2339  1285		       85 02		      sta	WSYNC	;3   =  14
   2340  1287							;---------------------------------------
   2341  1287		       b1 b9		      lda	(inv_slot2_lo),y	;5	   
   2342  1289		       85 1c		      sta	GRP1	;3	   
   2343  128b		       b1 bb		      lda	(inv_slot3_lo),y	;5	   
   2344  128d		       85 1b		      sta	GRP0	;3	   
   2345  128f		       b1 bd		      lda	(inv_slot4_lo),y	;5	   
   2346  1291		       85 85		      sta	ram_85	;3	   
   2347  1293		       b1 bf		      lda	(pwatch_state),y	;5	   
   2348  1295		       aa		      tax		;2	   
   2349  1296		       b1 c1		      lda	(inv_slot6_lo),y	;5	   
   2350  1298		       a8		      tay		;2	   
   2351  1299		       a5 85		      lda	ram_85	;3	   
   2352  129b		       85 1c		      sta	GRP1	;3	   
   2353  129d		       86 1b		      stx	GRP0	;3	   
   2354  129f		       84 1c		      sty	GRP1	;3	   
   2355  12a1		       84 1b		      sty	GRP0	;3	   
   2356  12a3		       c6 84		      dec	ram_84	;5	   
   2357  12a5		       10 d8		      bpl	draw_inventory	;2/3	   
   2358  12a7		       a9 00		      lda	#$00	;2	   
   2359  12a9		       85 02		      sta	WSYNC	;3   =  65
   2360  12ab							;---------------------------------------
   2361  12ab		       85 1b		      sta	GRP0	;3	   
   2362  12ad		       85 1c		      sta	GRP1	;3	   
   2363  12af		       85 1b		      sta	GRP0	;3	   
   2364  12b1		       85 1c		      sta	GRP1	;3	   
   2365  12b3		       85 04		      sta	NUSIZ0	;3	   
   2366  12b5		       85 05		      sta	NUSIZ1	;3	   
   2367  12b7		       85 25		      sta	VDELP0	;3	   
   2368  12b9		       85 26		      sta	VDELP1	;3	   
   2369  12bb		       85 02		      sta	WSYNC	;3   =  27
   2370  12bd							;---------------------------------------
   2371  12bd		       85 02		      sta	WSYNC	;3   =   3
   2372  12bf							;---------------------------------------
   2373  12bf		       a0 02		      ldy	#$02	;2	   
   2374  12c1		       a5 c4		      lda	ram_C4	;3	   
   2375  12c3		       d0 01		      bne	Lf2c6	;2/3	   
   2376  12c5		       88		      dey		;2   =   9
   2377  12c6				   Lf2c6
   2378  12c6		       84 1f		      sty	ENABL	;3	   
   2379  12c8		       a0 08		      ldy	#$08	;2	   
   2380  12ca		       84 08		      sty	COLUPF	;3	   
   2381  12cc		       85 02		      sta	WSYNC	;3   =  11
   2382  12ce							;---------------------------------------
   2383  12ce		       85 02		      sta	WSYNC	;3   =   3
   2384  12d0							;---------------------------------------
   2385  12d0		       a0 00		      ldy	#$00	;2	   
   2386  12d2		       84 1f		      sty	ENABL	;3	   
   2387  12d4		       85 02		      sta	WSYNC	;3   =   8
   2388  12d6							;---------------------------------------
   2389  12d6		       85 02		      sta	WSYNC	;3   =   3
   2390  12d8							;---------------------------------------
   2391  12d8		       85 02		      sta	WSYNC	;3   =   3
   2392  12da							;---------------------------------------
   2393  12da		       a2 0f		      ldx	#$0f	;2	   
   2394  12dc		       86 01		      stx	VBLANK	;3	   
   2395  12de		       a2 24		      ldx	#$24	;2	   
   2396  12e0		       8e 96 02 	      stx	TIM64T	;4	   
   2397  12e3		       a2 ff		      ldx	#$ff	;2	   
   2398  12e5		       9a		      txs		;2	   
   2399  12e6		       a2 01		      ldx	#$01	;2   =  17
   2400  12e8				   Lf2e8
   2401  12e8		       b5 a2		      lda	ram_A2,x	;4	   
   2402  12ea		       95 15		      sta	AUDC0,x	;4	   
   2403  12ec		       95 19		      sta	AUDV0,x	;4	   
   2404  12ee		       30 0b		      bmi	Lf2fb	;2/3	   
   2405  12f0		       a0 00		      ldy	#$00	;2	   
   2406  12f2		       94 a2		      sty	ram_A2,x	;4   =  20
   2407  12f4				   Lf2f4
   2408  12f4		       95 17		      sta	AUDF0,x	;4	   
   2409  12f6		       ca		      dex		;2	   
   2410  12f7		       10 ef		      bpl	Lf2e8	;2/3	   
   2411  12f9		       30 25		      bmi	Lf320	;2/3!=  10
   2412  12fb				   Lf2fb
   2413  12fb		       c9 9c		      cmp	#$9c	;2	   
   2414  12fd		       d0 15		      bne	Lf314	;2/3!	   
   2415  12ff		       a9 0f		      lda	#$0f	;2	   
   2416  1301		       25 82		      and	frame_counter	;3	   
   2417  1303		       d0 08		      bne	Lf30d	;2/3	   
   2418  1305		       c6 a4		      dec	diamond_h	;5	   
   2419  1307		       10 04		      bpl	Lf30d	;2/3	   
   2420  1309		       a9 17		      lda	#$17	;2	   
   2421  130b		       85 a4		      sta	diamond_h	;3   =  23
   2422  130d				   Lf30d
   2423  130d		       a4 a4		      ldy	diamond_h	;3	   
   2424  130f		       b9 e8 fb 	      lda	Lfbe8,y	;4	   
   2425  1312		       d0 e0		      bne	Lf2f4	;2/3!=   9
   2426  1314				   Lf314
   2427  1314		       a5 82		      lda	frame_counter	;3	    *
   2428  1316		       4a		      lsr		;2	    *
   2429  1317		       4a		      lsr		;2	    *
   2430  1318		       4a		      lsr		;2	    *
   2431  1319		       4a		      lsr		;2	    *
   2432  131a		       a8		      tay		;2	    *
   2433  131b		       b9 ee fa 	      lda	Lfaee,y	;4	    *
   2434  131e		       d0 d4		      bne	Lf2f4	;2/3!=  19 *
   2435  1320				   Lf320
   2436  1320		       a5 c5		      lda	current_inv	;3	   
   2437  1322		       c9 0f		      cmp	#$0f	;2	   
   2438  1324		       f0 0a		      beq	Lf330	;2/3	   
   2439  1326		       c9 02		      cmp	#$02	;2	   
   2440  1328		       d0 1a		      bne	Lf344	;2/3	   
   2441  132a		       a9 84		      lda	#$84	;2	    *
   2442  132c		       85 a3		      sta	ram_A3	;3	    *
   2443  132e		       d0 18		      bne	Lf348	;2/3 =  18 *
   2444  1330				   Lf330
   2445  1330		       24 3d		      bit	INPT5|$30	;3	    *
   2446  1332		       10 04		      bpl	Lf338	;2/3	    *
   2447  1334		       a9 78		      lda	#$78	;2	    *
   2448  1336		       d0 08		      bne	Lf340	;2/3 =   9 *
   2449  1338				   Lf338
   2450  1338		       a5 83		      lda	time_of_day	;3	    *
   2451  133a		       29 e0		      and	#$e0	;2	    *
   2452  133c		       4a		      lsr		;2	    *
   2453  133d		       4a		      lsr		;2	    *
   2454  133e		       69 98		      adc	#$98	;2   =  11 *
   2455  1340				   Lf340
   2456  1340		       a6 c3		      ldx	cursor_pos	;3	    *
   2457  1342		       95 b7		      sta	inv_slot1_lo,x	;4   =   7 *
   2458  1344				   Lf344
   2459  1344		       a9 00		      lda	#$00	;2	   
   2460  1346		       85 a3		      sta	ram_A3	;3   =   5
   2461  1348				   Lf348
   2462  1348		       24 93		      bit	ram_93	;3	   
   2463  134a		       10 25		      bpl	Lf371	;2/3	   
   2464  134c		       a5 82		      lda	frame_counter	;3	    *
   2465  134e		       29 07		      and	#$07	;2	    *
   2466  1350		       c9 05		      cmp	#$05	;2	    *
   2467  1352		       90 11		      bcc	Lf365	;2/3	    *
   2468  1354		       a2 04		      ldx	#$04	;2	    *
   2469  1356		       a0 01		      ldy	#$01	;2	    *
   2470  1358		       24 9d		      bit	ram_9D	;3	    *
   2471  135a		       30 04		      bmi	Lf360	;2/3	    *
   2472  135c		       24 a1		      bit	ram_A1	;3	    *
   2473  135e		       10 02		      bpl	Lf362	;2/3 =  28 *
   2474  1360				   Lf360
   2475  1360		       a0 03		      ldy	#$03	;2   =   2 *
   2476  1362				   Lf362
   2477  1362		       20 b3 f8 	      jsr	Lf8b3	;6   =   6 *
   2478  1365				   Lf365
   2479  1365		       a5 82		      lda	frame_counter	;3	    *
   2480  1367		       29 06		      and	#$06	;2	    *
   2481  1369		       0a		      asl		;2	    *
   2482  136a		       0a		      asl		;2	    *
   2483  136b		       85 d6		      sta	ram_D6	;3	    *
   2484  136d		       a9 fd		      lda	#$fd	;2	    *
   2485  136f		       85 d7		      sta	ram_D7	;3   =  17 *
   2486  1371				   Lf371
   2487  1371		       a2 02		      ldx	#$02	;2   =   2
   2488  1373				   Lf373
   2489  1373		       20 f4 fe 	      jsr	Lfef4	;6	   
   2490  1376		       e8		      inx		;2	   
   2491  1377		       e0 05		      cpx	#$05	;2	   
   2492  1379		       90 f8		      bcc	Lf373	;2/3	   
   2493  137b		       24 9d		      bit	ram_9D	;3	   
   2494  137d		       10 40		      bpl	Lf3bf	;2/3	   
   2495  137f		       a5 82		      lda	frame_counter	;3	    *
   2496  1381		       70 1a		      bvs	Lf39d	;2/3	    *
   2497  1383		       29 0f		      and	#$0f	;2	    *
   2498  1385		       d0 3e		      bne	Lf3c5	;2/3	    *
   2499  1387		       a6 db		      ldx	indy_h	;3	    *
   2500  1389		       ca		      dex		;2	    *
   2501  138a		       86 a3		      stx	ram_A3	;3	    *
   2502  138c		       e0 03		      cpx	#$03	;2	    *
   2503  138e		       90 08		      bcc	Lf398	;2/3	    *
   2504  1390		       a9 8f		      lda	#$8f	;2	    *
   2505  1392		       85 d1		      sta	ram_D1	;3	    *
   2506  1394		       86 db		      stx	indy_h	;3	    *
   2507  1396		       b0 2d		      bcs	Lf3c5	;2/3 =  48 *
   2508  1398				   Lf398
   2509  1398		       85 82		      sta	frame_counter	;3	    *
   2510  139a		       38		      sec		;2	    *
   2511  139b		       66 9d		      ror	ram_9D	;5   =  10 *
   2512  139d				   Lf39d
   2513  139d		       c9 3c		      cmp	#$3c	;2	    *
   2514  139f		       90 08		      bcc	Lf3a9	;2/3	    *
   2515  13a1		       d0 02		      bne	Lf3a5	;2/3	    *
   2516  13a3		       85 a3		      sta	ram_A3	;3   =   9 *
   2517  13a5				   Lf3a5
   2518  13a5		       a0 00		      ldy	#$00	;2	    *
   2519  13a7		       84 db		      sty	indy_h	;3   =   5 *
   2520  13a9				   Lf3a9
   2521  13a9		       c9 78		      cmp	#$78	;2	    *
   2522  13ab		       90 18		      bcc	Lf3c5	;2/3	    *
   2523  13ad		       a9 0b		      lda	#$0b	;2	    *
   2524  13af		       85 db		      sta	indy_h	;3	    *
   2525  13b1		       85 a3		      sta	ram_A3	;3	    *
   2526  13b3		       85 9d		      sta	ram_9D	;3	    *
   2527  13b5		       c6 9f		      dec	lives_left	;5	    *
   2528  13b7		       10 0c		      bpl	Lf3c5	;2/3	    *
   2529  13b9		       a9 ff		      lda	#$ff	;2	    *
   2530  13bb		       85 9d		      sta	ram_9D	;3	    *
   2531  13bd		       d0 06		      bne	Lf3c5	;2/3 =  29 *
   2532  13bf				   Lf3bf
   2533  13bf		       a5 81		      lda	room_num	;3	   
   2534  13c1		       c9 0d		      cmp	#$0d	;2	   
   2535  13c3		       d0 0b		      bne	Lf3d0	;2/3 =   7
   2536  13c5				   Lf3c5
   2537  13c5		       a9 d8		      lda	#$d8	;2	   
   2538  13c7		       85 88		      sta	ram_88	;3	   
   2539  13c9		       a9 d3		      lda	#$d3	;2	   
   2540  13cb		       85 89		      sta	ram_89	;3	   
   2541  13cd		       4c 93 f4 	      jmp	Lf493	;3   =  13
   2542  13d0
   2543  13d0				   Lf3d0
   2544  13d0		       24 8d		      bit	ram_8D	;3	    *
   2545  13d2		       70 63		      bvs	Lf437	;2/3!	    *
   2546  13d4		       24 b4		      bit	ram_B4	;3	    *
   2547  13d6		       30 5f		      bmi	Lf437	;2/3!	    *
   2548  13d8		       24 9a		      bit	ram_9A	;3	    *
   2549  13da		       30 5b		      bmi	Lf437	;2/3!	    *
   2550  13dc		       a9 07		      lda	#$07	;2	    *
   2551  13de		       25 82		      and	frame_counter	;3	    *
   2552  13e0		       d0 55		      bne	Lf437	;2/3!	    *
   2553  13e2		       a5 c4		      lda	ram_C4	;3	    *
   2554  13e4		       29 06		      and	#$06	;2	    *
   2555  13e6		       f0 4f		      beq	Lf437	;2/3!	    *
   2556  13e8		       a6 c3		      ldx	cursor_pos	;3	    *
   2557  13ea		       b5 b7		      lda	inv_slot1_lo,x	;4	    *
   2558  13ec		       c9 98		      cmp	#$98	;2	    *
   2559  13ee		       90 02		      bcc	Lf3f2	;2/3	    *
   2560  13f0		       a9 78		      lda	#$78	;2   =  42 *
   2561  13f2				   Lf3f2
   2562  13f2		       2c 80 02 	      bit	SWCHA	;4	    *
   2563  13f5		       30 10		      bmi	Lf407	;2/3!	    *
   2564  13f7		       95 b7		      sta	inv_slot1_lo,x	;4   =  10 *
   2565  13f9				   Lf3f9
   2566  13f9		       e8		      inx		;2	    *
   2567  13fa		       e8		      inx		;2	    *
   2568  13fb		       e0 0b		      cpx	#$0b	;2	    *
   2569  13fd		       90 02		      bcc	Lf401	;2/3!	    *
   2570  13ff		       a2 00		      ldx	#$00	;2   =  10 *
   2571  1401				   Lf401
   2572  1401		       b4 b7		      ldy	inv_slot1_lo,x	;4	    *
   2573  1403		       f0 f4		      beq	Lf3f9	;2/3!	    *
   2574  1405		       d0 0e		      bne	Lf415	;2/3 =   8 *
   2575  1407				   Lf407
   2576  1407		       70 2e		      bvs	Lf437	;2/3	    *
   2577  1409		       95 b7		      sta	inv_slot1_lo,x	;4   =   6 *
   2578  140b				   Lf40b
   2579  140b		       ca		      dex		;2	    *
   2580  140c		       ca		      dex		;2	    *
   2581  140d		       10 02		      bpl	Lf411	;2/3	    *
   2582  140f		       a2 0a		      ldx	#$0a	;2   =   8 *
   2583  1411				   Lf411
   2584  1411		       b4 b7		      ldy	inv_slot1_lo,x	;4	    *
   2585  1413		       f0 f6		      beq	Lf40b	;2/3 =   6 *
   2586  1415				   Lf415
   2587  1415		       86 c3		      stx	cursor_pos	;3	    *
   2588  1417		       98		      tya		;2	    *
   2589  1418		       4a		      lsr		;2	    *
   2590  1419		       4a		      lsr		;2	    *
   2591  141a		       4a		      lsr		;2	    *
   2592  141b		       85 c5		      sta	current_inv	;3	    *
   2593  141d		       c0 90		      cpy	#$90	;2	    *
   2594  141f		       d0 16		      bne	Lf437	;2/3	    *
   2595  1421		       a0 09		      ldy	#$09	;2	    *
   2596  1423		       c4 81		      cpy	room_num	;3	    *
   2597  1425		       d0 10		      bne	Lf437	;2/3	    *
   2598  1427		       a9 49		      lda	#$49	;2	    *
   2599  1429		       85 8d		      sta	ram_8D	;3	    *
   2600  142b		       a5 cf		      lda	indy_y	;3	    *
   2601  142d		       69 09		      adc	#$09	;2	    *
   2602  142f		       85 d1		      sta	ram_D1	;3	    *
   2603  1431		       a5 c9		      lda	indy_x	;3	    *
   2604  1433		       69 09		      adc	#$09	;2	    *
   2605  1435		       85 cb		      sta	ram_CB	;3   =  46 *
   2606  1437				   Lf437
   2607  1437		       a5 8d		      lda	ram_8D	;3	    *
   2608  1439		       10 19		      bpl	Lf454	;2/3	    *
   2609  143b		       c9 bf		      cmp	#$bf	;2	    *
   2610  143d		       b0 0c		      bcs	Lf44b	;2/3	    *
   2611  143f		       69 10		      adc	#$10	;2	    *
   2612  1441		       85 8d		      sta	ram_8D	;3	    *
   2613  1443		       a2 03		      ldx	#$03	;2	    *
   2614  1445		       20 ea fc 	      jsr	Lfcea	;6	    *
   2615  1448		       4c 8b f4 	      jmp	Lf48b	;3   =  25 *
   2616  144b
   2617  144b				   Lf44b
   2618  144b		       a9 70		      lda	#$70	;2	    *
   2619  144d		       85 d1		      sta	ram_D1	;3	    *
   2620  144f		       4a		      lsr		;2	    *
   2621  1450		       85 8d		      sta	ram_8D	;3	    *
   2622  1452		       d0 37		      bne	Lf48b	;2/3 =  12 *
   2623  1454				   Lf454
   2624  1454		       24 8d		      bit	ram_8D	;3	    *
   2625  1456		       50 33		      bvc	Lf48b	;2/3	    *
   2626  1458		       a2 03		      ldx	#$03	;2	    *
   2627  145a		       20 ea fc 	      jsr	Lfcea	;6	    *
   2628  145d		       a5 cb		      lda	ram_CB	;3	    *
   2629  145f		       38		      sec		;2	    *
   2630  1460		       e9 04		      sbc	#$04	;2	    *
   2631  1462		       c5 c9		      cmp	indy_x	;3	    *
   2632  1464		       d0 04		      bne	Lf46a	;2/3	    *
   2633  1466		       a9 03		      lda	#$03	;2	    *
   2634  1468		       d0 17		      bne	Lf481	;2/3 =  29 *
   2635  146a				   Lf46a
   2636  146a		       c9 11		      cmp	#$11	;2	    *
   2637  146c		       f0 04		      beq	Lf472	;2/3	    *
   2638  146e		       c9 84		      cmp	#$84	;2	    *
   2639  1470		       d0 04		      bne	Lf476	;2/3 =   8 *
   2640  1472				   Lf472
   2641  1472		       a9 0f		      lda	#$0f	;2	    *
   2642  1474		       d0 0b		      bne	Lf481	;2/3 =   4 *
   2643  1476				   Lf476
   2644  1476		       a5 d1		      lda	ram_D1	;3	    *
   2645  1478		       38		      sec		;2	    *
   2646  1479		       e9 05		      sbc	#$05	;2	    *
   2647  147b		       c5 cf		      cmp	indy_y	;3	    *
   2648  147d		       d0 08		      bne	Lf487	;2/3	    *
   2649  147f		       a9 0c		      lda	#$0c	;2   =  14 *
   2650  1481				   Lf481
   2651  1481		       45 8d		      eor	ram_8D	;3	    *
   2652  1483		       85 8d		      sta	ram_8D	;3	    *
   2653  1485		       d0 04		      bne	Lf48b	;2/3 =   8 *
   2654  1487				   Lf487
   2655  1487		       c9 4a		      cmp	#$4a	;2	    *
   2656  1489		       b0 e7		      bcs	Lf472	;2/3 =   4 *
   2657  148b				   Lf48b
   2658  148b		       a9 24		      lda	#$24	;2	    *
   2659  148d		       85 88		      sta	ram_88	;3	    *
   2660  148f		       a9 d0		      lda	#$d0	;2	    *
   2661  1491		       85 89		      sta	ram_89	;3   =  10 *
   2662  1493				   Lf493
   2663  1493		       a9 ad		      lda	#$ad	;2	   
   2664  1495		       85 84		      sta	ram_84	;3	   
   2665  1497		       a9 f8		      lda	#$f8	;2	   
   2666  1499		       85 85		      sta	ram_85	;3	   
   2667  149b		       a9 ff		      lda	#$ff	;2	   
   2668  149d		       85 86		      sta	ram_86	;3	   
   2669  149f		       a9 4c		      lda	#$4c	;2	   
   2670  14a1		       85 87		      sta	ram_87	;3	   
   2671  14a3		       4c 84 00 	      jmp.w	ram_84	;3   =  23
   2672  14a6
   2673  14a6				   Lf4a6
   2674  14a6		       85 02		      sta	WSYNC	;3   =   3
   2675  14a8							;---------------------------------------
   2676  14a8		       e0 12		      cpx	#$12	;2	   
   2677  14aa		       90 24		      bcc	Lf4d0	;2/3	   
   2678  14ac		       8a		      txa		;2	   
   2679  14ad		       e5 cf		      sbc	indy_y	;3	   
   2680  14af		       30 18		      bmi	Lf4c9	;2/3	   
   2681  14b1		       c9 14		      cmp	#$14	;2	   
   2682  14b3		       b0 08		      bcs	Lf4bd	;2/3	   
   2683  14b5		       4a		      lsr		;2	   
   2684  14b6		       a8		      tay		;2	   
   2685  14b7		       b9 58 fa 	      lda	indy_sprite,y	;4	   
   2686  14ba		       4c c3 f4 	      jmp	Lf4c3	;3   =  26
   2687  14bd
   2688  14bd				   Lf4bd
   2689  14bd		       29 03		      and	#$03	;2	   
   2690  14bf		       a8		      tay		;2	   
   2691  14c0		       b9 fc f9 	      lda	Lf9fc,y	;4   =   8
   2692  14c3				   Lf4c3
   2693  14c3		       85 1c		      sta	GRP1	;3	   
   2694  14c5		       a5 cf		      lda	indy_y	;3	   
   2695  14c7		       85 07		      sta	COLUP1	;3   =   9
   2696  14c9				   Lf4c9
   2697  14c9		       e8		      inx		;2	   
   2698  14ca		       e0 90		      cpx	#$90	;2	   
   2699  14cc		       b0 1c		      bcs	Lf4ea	;2/3	   
   2700  14ce		       90 d6		      bcc	Lf4a6	;2/3 =   8
   2701  14d0				   Lf4d0
   2702  14d0		       24 9c		      bit	ram_9C	;3	   
   2703  14d2		       30 11		      bmi	Lf4e5	;2/3	   
   2704  14d4		       8a		      txa		;2	   
   2705  14d5		       e9 07		      sbc	#$07	;2	   
   2706  14d7		       30 0c		      bmi	Lf4e5	;2/3	   
   2707  14d9		       a8		      tay		;2	   
   2708  14da		       b9 40 fb 	      lda	Lfb40,y	;4	   
   2709  14dd		       85 1c		      sta	GRP1	;3	   
   2710  14df		       8a		      txa		;2	   
   2711  14e0		       65 82		      adc	frame_counter	;3	   
   2712  14e2		       0a		      asl		;2	   
   2713  14e3		       85 07		      sta	COLUP1	;3   =  30
   2714  14e5				   Lf4e5
   2715  14e5		       e8		      inx		;2	   
   2716  14e6		       e0 0f		      cpx	#$0f	;2	   
   2717  14e8		       90 bc		      bcc	Lf4a6	;2/3 =   6
   2718  14ea				   Lf4ea
   2719  14ea		       85 02		      sta	WSYNC	;3   =   3
   2720  14ec							;---------------------------------------
   2721  14ec		       e0 20		      cpx	#$20	;2	   
   2722  14ee		       b0 21		      bcs	Lf511	;2/3!	   
   2723  14f0		       24 9c		      bit	ram_9C	;3	   
   2724  14f2		       30 10		      bmi	Lf504	;2/3!	   
   2725  14f4		       8a		      txa		;2	   
   2726  14f5		       a0 7e		      ldy	#$7e	;2	   
   2727  14f7		       29 0e		      and	#$0e	;2	   
   2728  14f9		       d0 02		      bne	Lf4fd	;2/3	   
   2729  14fb		       a0 ff		      ldy	#$ff	;2   =  19
   2730  14fd				   Lf4fd
   2731  14fd		       84 1b		      sty	GRP0	;3	   
   2732  14ff		       8a		      txa		;2	   
   2733  1500		       49 ff		      eor	#$ff	;2	   
   2734  1502		       85 06		      sta	COLUP0	;3   =  10
   2735  1504				   Lf504
   2736  1504		       e8		      inx		;2	   
   2737  1505		       e0 1d		      cpx	#$1d	;2	   
   2738  1507		       90 e1		      bcc	Lf4ea	;2/3!	   
   2739  1509		       a9 00		      lda	#$00	;2	   
   2740  150b		       85 1b		      sta	GRP0	;3	   
   2741  150d		       85 1c		      sta	GRP1	;3	   
   2742  150f		       f0 95		      beq	Lf4a6	;2/3!=  16
   2743  1511				   Lf511
   2744  1511		       8a		      txa		;2	   
   2745  1512		       e9 90		      sbc	#$90	;2	   
   2746  1514		       c9 0f		      cmp	#$0f	;2	   
   2747  1516		       90 03		      bcc	Lf51b	;2/3	   
   2748  1518		       4c ea f1 	      jmp	Lf1ea	;3   =  11
   2749  151b
   2750  151b				   Lf51b
   2751  151b		       4a		      lsr		;2	   
   2752  151c		       4a		      lsr		;2	   
   2753  151d		       a8		      tay		;2	   
   2754  151e		       b9 f0 fe 	      lda	Lfef0,y	;4	   
   2755  1521		       85 1b		      sta	GRP0	;3	   
   2756  1523		       86 06		      stx	COLUP0	;3	   
   2757  1525		       e8		      inx		;2	   
   2758  1526		       d0 c2		      bne	Lf4ea	;2/3!	   
   2759  1528		       a5 81		      lda	room_num	;3	    *
   2760  152a		       0a		      asl		;2	    *
   2761  152b		       aa		      tax		;2	    *
   2762  152c		       bd 89 fc 	      lda	Lfc89,x	;4	    *
   2763  152f		       48		      pha		;3	    *
   2764  1530		       bd 88 fc 	      lda	Lfc88,x	;4	    *
   2765  1533		       48		      pha		;3	    *
   2766  1534		       60		      rts		;6   =  47 *
   2767  1535
   2768  1535		       a9 7f 85 ce*	      .byte.b	$a9,$7f,$85,$ce,$85,$d0,$85,$d2	; $f535 (*)
   2769  153d		       d0 5b a2 00*	      .byte.b	$d0,$5b,$a2,$00,$a0,$01,$24,$33	; $f53d (*)
   2770  1545		       30 14 24 b6*	      .byte.b	$30,$14,$24,$b6,$30,$10,$a5,$82	; $f545 (*)
   2771  154d		       29 07 d0 0d*	      .byte.b	$29,$07,$d0,$0d,$a0,$05,$a9,$4c	; $f54d (*)
   2772  1555		       85 cd a9 23*	      .byte.b	$85,$cd,$a9,$23,$85,$d3,$20,$b3	; $f555 (*)
   2773  155d		       f8 a9 80 85*	      .byte.b	$f8,$a9,$80,$85,$93,$a5,$ce,$29	; $f55d (*)
   2774  1565		       01 66 c8 2a*	      .byte.b	$01,$66,$c8,$2a,$a8,$6a,$26,$c8	; $f565 (*)
   2775  156d		       b9 ea fa 85*	      .byte.b	$b9,$ea,$fa,$85,$dd,$a9,$fc,$85	; $f56d (*)
   2776  1575		       de a5 8e 30*	      .byte.b	$de,$a5,$8e,$30,$20,$a2,$50,$86	; $f575 (*)
   2777  157d		       ca a2 26 86*	      .byte.b	$ca,$a2,$26,$86,$d0,$a5,$b6,$30	; $f57d (*)
   2778  1585		       14 24 9d 30*	      .byte.b	$14,$24,$9d,$30,$10,$29,$07,$d0	; $f585 (*)
   2779  158d		       04 a0 06 84*	      .byte.b	$04,$a0,$06,$84,$b6,$aa,$bd,$d2	; $f58d (*)
   2780  1595		       fc 85 8e c6*	      .byte.b	$fc,$85,$8e,$c6,$b6,$4c,$33,$f8	; $f595 (*)
   2781  159d		       a9 80 85 93*	      .byte.b	$a9,$80,$85,$93,$a2,$00,$24,$9d	; $f59d (*)
   2782  15a5		       30 04 24 95*	      .byte.b	$30,$04,$24,$95,$50,$0c,$a0,$05	; $f5a5 (*)
   2783  15ad		       a9 55 85 cd*	      .byte.b	$a9,$55,$85,$cd,$85,$d3,$a9,$01	; $f5ad (*)
   2784  15b5		       d0 04 a0 01*	      .byte.b	$d0,$04,$a0,$01,$a9,$03,$25,$82	; $f5b5 (*)
   2785  15bd		       d0 0f 20 b3*	      .byte.b	$d0,$0f,$20,$b3,$f8,$a5,$ce,$10	; $f5bd (*)
   2786  15c5		       08 c9 a0 90*	      .byte.b	$08,$c9,$a0,$90,$04,$e6,$ce,$e6	; $f5c5 (*)
   2787  15cd		       ce 50 0e a5*	      .byte.b	$ce,$50,$0e,$a5,$ce,$c9,$51,$90	; $f5cd (*)
   2788  15d5		       08 a5 95 85*	      .byte.b	$08,$a5,$95,$85,$99,$a9,$00,$85	; $f5d5 (*)
   2789  15dd		       95 a5 c8 c5*	      .byte.b	$95,$a5,$c8,$c5,$c9,$b0,$03,$ca	; $f5dd (*)
   2790  15e5		       49 03 86 0b*	      .byte.b	$49,$03,$86,$0b,$29,$03,$0a,$0a	; $f5e5 (*)
   2791  15ed		       0a 0a 85 dd*	      .byte.b	$0a,$0a,$85,$dd,$a5,$82,$29,$7f	; $f5ed (*)
   2792  15f5		       d0 20 a5 ce*	      .byte.b	$d0,$20,$a5,$ce,$c9,$4a,$b0,$1a	; $f5f5 (*)
   2793  15fd		       a4 98 f0 16*	      .byte.b	$a4,$98,$f0,$16,$88,$84,$98,$a0	; $f5fd (*)
   2794  1605		       8e 69 03 85*	      .byte.b	$8e,$69,$03,$85,$d0,$c5,$cf,$b0	; $f605 (*)
   2795  160d		       01 88 a5 c8*	      .byte.b	$01,$88,$a5,$c8,$69,$04,$85,$ca	; $f60d (*)
   2796  1615		       84 8e a0 7f*	      .byte.b	$84,$8e,$a0,$7f,$a5,$8e,$30,$02	; $f615 (*)
   2797  161d		       84 d0 a5 d1*	      .byte.b	$84,$d0,$a5,$d1,$c9,$52,$90,$02	; $f61d (*)
   2798  1625		       84 d1 4c 33*	      .byte.b	$84,$d1,$4c,$33,$f8,$a2,$3a,$86	; $f625 (*)
   2799  162d		       e9 a2 85 86*	      .byte.b	$e9,$a2,$85,$86,$e3,$a2,$03,$86	; $f62d (*)
   2800  1635		       ad d0 02 a2*	      .byte.b	$ad,$d0,$02,$a2,$04,$bd,$d8,$fc	; $f635 (*)
   2801  163d		       25 82 d0 15*	      .byte.b	$25,$82,$d0,$15,$b4,$e5,$a9,$08	; $f63d (*)
   2802  1645		       35 df d0 13*	      .byte.b	$35,$df,$d0,$13,$88,$c0,$14,$b0	; $f645 (*)
   2803  164d		       06 a9 08 55*	      .byte.b	$06,$a9,$08,$55,$df,$95,$df,$94	; $f64d (*)
   2804  1655		       e5 ca 10 e1*	      .byte.b	$e5,$ca,$10,$e1,$4c,$33,$f8,$c8	; $f655 (*)
   2805  165d		       c0 85 b0 ed*	      .byte.b	$c0,$85,$b0,$ed,$90,$f1,$24,$b4	; $f65d (*)
   2806  1665		       10 1e 50 04*	      .byte.b	$10,$1e,$50,$04,$c6,$c9,$d0,$18	; $f665 (*)
   2807  166d		       a5 82 6a 90*	      .byte.b	$a5,$82,$6a,$90,$13,$ad,$80,$02	; $f66d (*)
   2808  1675		       85 92 6a 6a*	      .byte.b	$85,$92,$6a,$6a,$6a,$b0,$04,$c6	; $f675 (*)
   2809  167d		       c9 d0 05 6a*	      .byte.b	$c9,$d0,$05,$6a,$b0,$02,$e6,$c9	; $f67d (*)
   2810  1685		       a9 02 25 b4*	      .byte.b	$a9,$02,$25,$b4,$d0,$06,$85,$8d	; $f685 (*)
   2811  168d		       a9 0b 85 ce*	      .byte.b	$a9,$0b,$85,$ce,$a6,$cf,$a5,$82	; $f68d (*)
   2812  1695		       24 b4 30 0a*	      .byte.b	$24,$b4,$30,$0a,$e0,$15,$90,$06	; $f695 (*)
   2813  169d		       e0 30 90 09*	      .byte.b	$e0,$30,$90,$09,$b0,$06,$6a,$90	; $f69d (*)
   2814  16a5		       04 4c 33 f8*	      .byte.b	$04,$4c,$33,$f8,$e8,$e8,$86,$cf	; $f6a5 (*)
   2815  16ad		       d0 f7 a5 c9*	      .byte.b	$d0,$f7,$a5,$c9,$c9,$64,$90,$07	; $f6ad (*)
   2816  16b5		       26 b2 18 66*	      .byte.b	$26,$b2,$18,$66,$b2,$10,$22,$c9	; $f6b5 (*)
   2817  16bd		       2c f0 06 a9*	      .byte.b	$2c,$f0,$06,$a9,$7f,$85,$d2,$d0	; $f6bd (*)
   2818  16c5		       18 24 b2 30*	      .byte.b	$18,$24,$b2,$30,$14,$a9,$30,$85	; $f6c5 (*)
   2819  16cd		       cc a0 00 84*	      .byte.b	$cc,$a0,$00,$84,$d2,$a0,$7f,$84	; $f6cd (*)
   2820  16d5		       dc 84 d5 e6*	      .byte.b	$dc,$84,$d5,$e6,$c9,$a9,$80,$85	; $f6d5 (*)
   2821  16dd		       9d 4c 33 f8*	      .byte.b	$9d,$4c,$33,$f8,$a4,$df,$88,$d0	; $f6dd (*)
   2822  16e5		       f8 a5 af 29*	      .byte.b	$f8,$a5,$af,$29,$07,$d0,$31,$a9	; $f6e5 (*)
   2823  16ed		       40 85 93 a5*	      .byte.b	$40,$85,$93,$a5,$83,$4a,$4a,$4a	; $f6ed (*)
   2824  16f5		       4a 4a aa bc*	      .byte.b	$4a,$4a,$aa,$bc,$dc,$fc,$be,$aa	; $f6f5 (*)
   2825  16fd		       fc 84 84 20*	      .byte.b	$fc,$84,$84,$20,$9d,$f8,$90,$05	; $f6fd (*)
   2826  1705		       e6 df d0 d5*	      .byte.b	$e6,$df,$d0,$d5,$00,$a4,$84,$98	; $f705 (*)
   2827  170d		       05 af 85 af*	      .byte.b	$05,$af,$85,$af,$b9,$a2,$fc,$85	; $f70d (*)
   2828  1715		       ce b9 a6 fc*	      .byte.b	$ce,$b9,$a6,$fc,$85,$df,$d0,$c1	; $f715 (*)
   2829  171d		       c9 04 b0 e4*	      .byte.b	$c9,$04,$b0,$e4,$26,$af,$38,$66	; $f71d (*)
   2830  1725		       af 30 dd a0*	      .byte.b	$af,$30,$dd,$a0,$00,$84,$d2,$a0	; $f725 (*)
   2831  172d		       7f 84 dc 84*	      .byte.b	$7f,$84,$dc,$84,$d5,$a9,$71,$85	; $f72d (*)
   2832  1735		       cc a0 4f a9*	      .byte.b	$cc,$a0,$4f,$a9,$3a,$c5,$cf,$d0	; $f735 (*)
   2833  173d		       0c a5 c5 c9*	      .byte.b	$0c,$a5,$c5,$c9,$07,$f0,$08,$a9	; $f73d (*)
   2834  1745		       5e c5 c9 f0*	      .byte.b	$5e,$c5,$c9,$f0,$02,$a0,$0d,$84	; $f745 (*)
   2835  174d		       df a5 83 38*	      .byte.b	$df,$a5,$83,$38,$e9,$10,$10,$05	; $f74d (*)
   2836  1755		       49 ff 38 69*	      .byte.b	$49,$ff,$38,$69,$00,$c9,$0b,$90	; $f755 (*)
   2837  175d		       02 a9 0b 85*	      .byte.b	$02,$a9,$0b,$85,$ce,$24,$b3,$10	; $f75d (*)
   2838  1765		       25 c9 08 b0*	      .byte.b	$25,$c9,$08,$b0,$1d,$a6,$c5,$e0	; $f765 (*)
   2839  176d		       0e d0 17 86*	      .byte.b	$0e,$d0,$17,$86,$ab,$a9,$04,$25	; $f76d (*)
   2840  1775		       82 d0 0f a5*	      .byte.b	$82,$d0,$0f,$a5,$8c,$29,$0f,$aa	; $f775 (*)
   2841  177d		       bd c2 fa 85*	      .byte.b	$bd,$c2,$fa,$85,$cb,$bd,$d2,$fa	; $f77d (*)
   2842  1785		       d0 02 a9 70*	      .byte.b	$d0,$02,$a9,$70,$85,$d1,$26,$b3	; $f785 (*)
   2843  178d		       a9 3a c5 cf*	      .byte.b	$a9,$3a,$c5,$cf,$d0,$0f,$c0,$4f	; $f78d (*)
   2844  1795		       f0 06 a9 5e*	      .byte.b	$f0,$06,$a9,$5e,$c5,$c9,$d0,$05	; $f795 (*)
   2845  179d		       38 66 b3 30*	      .byte.b	$38,$66,$b3,$30,$03,$18,$66,$b3	; $f79d (*)
   2846  17a5		       4c 33 f8 a9*	      .byte.b	$4c,$33,$f8,$a9,$08,$25,$c7,$d0	; $f7a5 (*)
   2847  17ad		       12 a9 4c 85*	      .byte.b	$12,$a9,$4c,$85,$cc,$a9,$2a,$85	; $f7ad (*)
   2848  17b5		       d2 a9 ba 85*	      .byte.b	$d2,$a9,$ba,$85,$d6,$a9,$fa,$85	; $f7b5 (*)
   2849  17bd		       d7 d0 04 a9*	      .byte.b	$d7,$d0,$04,$a9,$f0,$85,$d2,$a5	; $f7bd (*)
   2850  17c5		       b5 29 0f f0*	      .byte.b	$b5,$29,$0f,$f0,$69,$85,$dc,$a0	; $f7c5 (*)
   2851  17cd		       14 84 ce a0*	      .byte.b	$14,$84,$ce,$a0,$3b,$84,$e0,$c8	; $f7cd (*)
   2852  17d5		       84 d4 a9 c1*	      .byte.b	$84,$d4,$a9,$c1,$38,$e5,$dc,$85	; $f7d5 (*)
   2853  17dd		       dd d0 53 a5*	      .byte.b	$dd,$d0,$53,$a5,$82,$29,$18,$69	; $f7dd (*)
   2854  17e5		       e0 85 dd a5*	      .byte.b	$e0,$85,$dd,$a5,$82,$29,$07,$d0	; $f7e5 (*)
   2855  17ed		       21 a2 00 a0*	      .byte.b	$21,$a2,$00,$a0,$01,$a5,$cf,$c9	; $f7ed (*)
   2856  17f5		       3a 90 14 a5*	      .byte.b	$3a,$90,$14,$a5,$c9,$c9,$2b,$90	; $f7f5 (*)
   2857  17fd		       04 c9 6d 90*	      .byte.b	$04,$c9,$6d,$90,$0a,$a0,$05,$a9	; $f7fd (*)
   2858  1805		       4c 85 cd a9*	      .byte.b	$4c,$85,$cd,$a9,$0b,$85,$d3,$20	; $f805 (*)
   2859  180d		       b3 f8 a2 4e*	      .byte.b	$b3,$f8,$a2,$4e,$e4,$cf,$d0,$1e	; $f80d (*)
   2860  1815		       a6 c9 e0 76*	      .byte.b	$a6,$c9,$e0,$76,$f0,$04,$e0,$14	; $f815 (*)
   2861  181d		       d0 14 ad 80*	      .byte.b	$d0,$14,$ad,$80,$02,$29,$0f,$c9	; $f81d (*)
   2862  1825		       0d d0 0b 85*	      .byte.b	$0d,$d0,$0b,$85,$a6,$a9,$4c,$85	; $f825 (*)
   2863  182d		       c9 66 b5 38*	      .byte.b	$c9,$66,$b5,$38,$26,$b5,$a9,$0d	; $f82d (*)
   2864  1835		       85 88 a9 d8*	      .byte.b	$85,$88,$a9,$d8,$85,$89,$4c,$93	; $f835 (*)
   2865  183d		       f4 a9 40 85*	      .byte.b	$f4,$a9,$40,$85,$93,$d0,$ef	; $f83d (*)
   2866  1844
   2867  1844				   draw_field
   2868  1844		       85 02		      sta	WSYNC	;3   =   3
   2869  1846							;---------------------------------------
   2870  1846		       85 2b		      sta	HMCLR	;3	   
   2871  1848		       85 2c		      sta	CXCLR	;3	   
   2872  184a		       a0 ff		      ldy	#$ff	;2	   
   2873  184c		       84 0e		      sty	PF1	;3	   
   2874  184e		       84 0f		      sty	PF2	;3	   
   2875  1850		       a6 81		      ldx	room_num	;3	   
   2876  1852		       bd ac fa 	      lda	Lfaac,x	;4	   
   2877  1855		       85 0d		      sta	PF0	;3	   
   2878  1857		       c8		      iny		;2	   
   2879  1858		       85 02		      sta	WSYNC	;3   =  29
   2880  185a							;---------------------------------------
   2881  185a		       85 2a		      sta	HMOVE	;3	   
   2882  185c		       84 01		      sty	VBLANK	;3	   
   2883  185e		       84 80		      sty	scan_line	;3	   
   2884  1860		       e0 04		      cpx	#$04	;2	   
   2885  1862		       d0 01		      bne	Lf865	;2/3	   
   2886  1864		       88		      dey		;2   =  15 *
   2887  1865				   Lf865
   2888  1865		       84 1f		      sty	ENABL	;3	   
   2889  1867		       e0 0d		      cpx	#$0d	;2	   
   2890  1869		       f0 09		      beq	Lf874	;2/3	   
   2891  186b		       24 9d		      bit	ram_9D	;3	    *
   2892  186d		       30 05		      bmi	Lf874	;2/3	    *
   2893  186f		       ac 80 02 	      ldy	SWCHA	;4	    *
   2894  1872		       84 0c		      sty	REFP1	;3   =  19 *
   2895  1874				   Lf874
   2896  1874		       85 02		      sta	WSYNC	;3   =   3
   2897  1876							;---------------------------------------
   2898  1876		       85 2a		      sta	HMOVE	;3	   
   2899  1878		       85 02		      sta	WSYNC	;3   =   6
   2900  187a							;---------------------------------------
   2901  187a		       85 2a		      sta	HMOVE	;3	   
   2902  187c		       a4 81		      ldy	room_num	;3	   
   2903  187e		       85 02		      sta	WSYNC	;3   =   9
   2904  1880							;---------------------------------------
   2905  1880		       85 2a		      sta	HMOVE	;3	   
   2906  1882		       b9 91 fa 	      lda	Lfa91,y	;4	   
   2907  1885		       85 0e		      sta	PF1	;3	   
   2908  1887		       b9 9e fa 	      lda	Lfa9e,y	;4	   
   2909  188a		       85 0f		      sta	PF2	;3	   
   2910  188c		       be ee f9 	      ldx	Lf9ee,y	;4	   
   2911  188f		       bd e3 fa 	      lda	Lfae3,x	;4	   
   2912  1892		       48		      pha		;3	   
   2913  1893		       bd e2 fa 	      lda	Lfae2,x	;4	   
   2914  1896		       48		      pha		;3	   
   2915  1897		       a9 00		      lda	#$00	;2	   
   2916  1899		       aa		      tax		;2	   
   2917  189a		       85 84		      sta	ram_84	;3	   
   2918  189c		       60		      rts		;6   =  48
   2919  189d
   2920  189d
   2921  189d		       bd 75 fc 4a*	      .byte.b	$bd,$75,$fc,$4a,$a8,$b9,$e2,$fc	; $f89d (*)
   2922  18a5		       b0 06 25 c6*	      .byte.b	$b0,$06,$25,$c6,$f0,$01,$38,$60	; $f8a5 (*)
   2923  18ad		       25 c7 d0 fb*	      .byte.b	$25,$c7,$d0,$fb,$18,$60	; $f8ad (*)
   2924  18b3
   2925  18b3				   Lf8b3
   2926  18b3		       c0 01		      cpy	#$01	;2	    *
   2927  18b5		       d0 04		      bne	Lf8bb	;2/3	    *
   2928  18b7		       a5 cf		      lda	indy_y	;3	    *
   2929  18b9		       30 11		      bmi	Lf8cc	;2/3 =   9 *
   2930  18bb				   Lf8bb
   2931  18bb		       b5 ce		      lda	enemy_y,x	;4	    *
   2932  18bd		       d9 ce 00 	      cmp.wy	enemy_y,y	;4	    *
   2933  18c0		       d0 04		      bne	Lf8c6	;2/3	    *
   2934  18c2		       c0 05		      cpy	#$05	;2	    *
   2935  18c4		       b0 08		      bcs	Lf8ce	;2/3 =  14 *
   2936  18c6				   Lf8c6
   2937  18c6		       b0 04		      bcs	Lf8cc	;2/3	    *
   2938  18c8		       f6 ce		      inc	enemy_y,x	;6	    *
   2939  18ca		       d0 02		      bne	Lf8ce	;2/3 =  10 *
   2940  18cc				   Lf8cc
   2941  18cc		       d6 ce		      dec	enemy_y,x	;6   =   6 *
   2942  18ce				   Lf8ce
   2943  18ce		       b5 c8		      lda	enemy_x,x	;4	    *
   2944  18d0		       d9 c8 00 	      cmp.wy	enemy_x,y	;4	    *
   2945  18d3		       d0 04		      bne	Lf8d9	;2/3	    *
   2946  18d5		       c0 05		      cpy	#$05	;2	    *
   2947  18d7		       b0 04		      bcs	Lf8dd	;2/3 =  14 *
   2948  18d9				   Lf8d9
   2949  18d9		       b0 03		      bcs	Lf8de	;2/3	    *
   2950  18db		       f6 c8		      inc	enemy_x,x	;6   =   8 *
   2951  18dd				   Lf8dd
   2952  18dd		       60		      rts		;6   =   6 *
   2953  18de
   2954  18de				   Lf8de
   2955  18de		       d6 c8		      dec	enemy_x,x	;6	    *
   2956  18e0		       60		      rts		;6   =  12 *
   2957  18e1
   2958  18e1				   Lf8e1
   2959  18e1		       b5 ce		      lda	enemy_y,x	;4	    *
   2960  18e3		       c9 53		      cmp	#$53	;2	    *
   2961  18e5		       90 0a		      bcc	Lf8f1	;2/3 =   8 *
   2962  18e7				   Lf8e7
   2963  18e7		       36 8c		      rol	ram_8C,x	;6	    *
   2964  18e9		       18		      clc		;2	    *
   2965  18ea		       76 8c		      ror	ram_8C,x	;6	    *
   2966  18ec		       a9 78		      lda	#$78	;2	    *
   2967  18ee		       95 ce		      sta	enemy_y,x	;4	    *
   2968  18f0		       60		      rts		;6   =  26 *
   2969  18f1
   2970  18f1				   Lf8f1
   2971  18f1		       b5 c8		      lda	enemy_x,x	;4	    *
   2972  18f3		       c9 10		      cmp	#$10	;2	    *
   2973  18f5		       90 f0		      bcc	Lf8e7	;2/3	    *
   2974  18f7		       c9 8e		      cmp	#$8e	;2	    *
   2975  18f9		       b0 ec		      bcs	Lf8e7	;2/3	    *
   2976  18fb		       60		      rts		;6   =  18 *
   2977  18fc
   2978  18fc		       00 00 00 00*	      .byte.b	$00,$00,$00,$00,$00,$e4,$7e,$9a	; $f8fc (*)
   2979  1904		       e4 a6 5a 7e*	      .byte.b	$e4,$a6,$5a,$7e,$e4,$7f,$00,$00	; $f904 (*)
   2980  190c		       84 08 2a 22*	      .byte.b	$84,$08,$2a,$22,$00,$22,$2a,$08	; $f90c (*)
   2981  1914		       00 b9 d4 89*	      .byte.b	$00,$b9,$d4,$89,$6c,$7b,$7f,$81	; $f914 (*)
   2982  191c		       a6 3f 77 07*	      .byte.b	$a6,$3f,$77,$07,$7f,$86,$89,$3f	; $f91c (*)
   2983  1924		       1f 0e 0c 00*	      .byte.b	$1f,$0e,$0c,$00,$c1,$b6,$00,$00	; $f924 (*)
   2984  192c		       00 81 1c 2a*	      .byte.b	$00,$81,$1c,$2a,$55,$2a,$14,$3e	; $f92c (*)
   2985  1934		       00 a9 00 e4*	      .byte.b	$00,$a9,$00,$e4,$89,$81,$7e,$9a	; $f934 (*)
   2986  193c		       e4 a6 5a 7e*	      .byte.b	$e4,$a6,$5a,$7e,$e4,$7f,$00,$c9	; $f93c (*)
   2987  1944		       89 82 00 7c*	      .byte.b	$89,$82,$00,$7c,$18,$18,$92,$7f	; $f944 (*)
   2988  194c		       1f 07 00 00*	      .byte.b	$1f,$07,$00,$00,$00	; $f94c (*)
   2989  1951
   2990  1951
   2991  1951							;Map Room
   2992  1951		       94		      .byte.b	$94	; |#  # #  |
   2993  1952		       00		      .byte.b	$00	; |	    |
   2994  1953		       08		      .byte.b	$08	; |	#   |
   2995  1954		       1c		      .byte.b	$1C	; |   ###  |
   2996  1955		       3e		      .byte.b	$3E	; |  ##### |
   2997  1956		       3e		      .byte.b	$3E	; |  ##### |
   2998  1957		       3e		      .byte.b	$3E	; |  ##### |
   2999  1958		       3e		      .byte.b	$3E	; |  ##### |
   3000  1959		       1c		      .byte.b	$1C	; |   ###  |
   3001  195a		       08		      .byte.b	$08	; |	#   |
   3002  195b		       00		      .byte.b	$00	; |	    |
   3003  195c		       8e		      .byte.b	$8E	; |#	### |
   3004  195d		       7f		      .byte.b	$7F	; | #######|
   3005  195e		       7f		      .byte.b	$7F	; | #######|
   3006  195f		       7f		      .byte.b	$7F	; | #######|
   3007  1960		       14		      .byte.b	$14	; |   # #  |
   3008  1961		       14		      .byte.b	$14	; |   # #  |
   3009  1962		       00		      .byte.b	$00	; |	    |
   3010  1963		       00		      .byte.b	$00	; |	    |
   3011  1964		       2a		      .byte.b	$2A	; |  # # # |
   3012  1965		       2a		      .byte.b	$2A	; |  # # # |
   3013  1966		       00		      .byte.b	$00	; |	    |
   3014  1967		       00		      .byte.b	$00	; |	    |
   3015  1968		       14		      .byte.b	$14	; |   # #  |
   3016  1969		       36		      .byte.b	$36	; |  ## ## |
   3017  196a		       22		      .byte.b	$22	; |  #   # |
   3018  196b		       08		      .byte.b	$08	; |	#   |
   3019  196c		       08		      .byte.b	$08	; |	#   |
   3020  196d		       3e		      .byte.b	$3E	; |  ##### |
   3021  196e		       1c		      .byte.b	$1C	; |   ###  |
   3022  196f		       08		      .byte.b	$08	; |	#   |
   3023  1970		       00		      .byte.b	$00	; |	    |
   3024  1971		       41		      .byte.b	$41	; | #	   #|
   3025  1972		       63		      .byte.b	$63	; | ##   ##|
   3026  1973		       49		      .byte.b	$49	; | #	#  #|
   3027  1974		       08		      .byte.b	$08	; |	#   |
   3028  1975		       00		      .byte.b	$00	; |	    |
   3029  1976		       00		      .byte.b	$00	; |	    |
   3030  1977		       14		      .byte.b	$14	; |   # #  |
   3031  1978		       14		      .byte.b	$14	; |   # #  |
   3032  1979		       00		      .byte.b	$00	; |	    |
   3033  197a		       00		      .byte.b	$00	; |	    |
   3034  197b		       08		      .byte.b	$08	; |	#   |
   3035  197c		       6b		      .byte.b	$6B	; | ## # ##|
   3036  197d		       6b		      .byte.b	$6B	; | ## # ##|
   3037  197e		       08		      .byte.b	$08	; |	#   |
   3038  197f		       00		      .byte.b	$00	; |	    |
   3039  1980		       22		      .byte.b	$22	; |  #   # |
   3040  1981		       22		      .byte.b	$22	; |  #   # |
   3041  1982		       00		      .byte.b	$00	; |	    |
   3042  1983		       00		      .byte.b	$00	; |	    |
   3043  1984		       08		      .byte.b	$08	; |	#   |
   3044  1985		       1c		      .byte.b	$1C	; |   ###  |
   3045  1986		       1c		      .byte.b	$1C	; |   ###  |
   3046  1987		       7f		      .byte.b	$7F	; | #######|
   3047  1988		       7f		      .byte.b	$7F	; | #######|
   3048  1989		       7f		      .byte.b	$7F	; | #######|
   3049  198a		       e4		      .byte.b	$E4	; |###  #  |
   3050  198b		       41		      .byte.b	$41	; | #	   #|
   3051  198c		       41		      .byte.b	$41	; | #	   #|
   3052  198d		       41		      .byte.b	$41	; | #	   #|
   3053  198e		       41		      .byte.b	$41	; | #	   #|
   3054  198f		       41		      .byte.b	$41	; | #	   #|
   3055  1990		       41		      .byte.b	$41	; | #	   #|
   3056  1991		       41		      .byte.b	$41	; | #	   #|
   3057  1992		       41		      .byte.b	$41	; | #	   #|
   3058  1993		       41		      .byte.b	$41	; | #	   #|
   3059  1994		       41		      .byte.b	$41	; | #	   #|
   3060  1995		       7f		      .byte.b	$7F	; | #######|
   3061  1996		       92		      .byte.b	$92	; |#  #  # |
   3062  1997		       77		      .byte.b	$77	; | ### ###|
   3063  1998		       77		      .byte.b	$77	; | ### ###|
   3064  1999		       63		      .byte.b	$63	; | ##   ##|
   3065  199a		       77		      .byte.b	$77	; | ### ###|
   3066  199b		       14		      .byte.b	$14	; |   # #  |
   3067  199c		       36		      .byte.b	$36	; |  ## ## |
   3068  199d		       55		      .byte.b	$55	; | # # # #|
   3069  199e		       63		      .byte.b	$63	; | ##   ##|
   3070  199f		       77		      .byte.b	$77	; | ### ###|
   3071  19a0		       7f		      .byte.b	$7F	; | #######|
   3072  19a1		       7f		      .byte.b	$7F	; | #######|
   3073  19a2		       00		      .byte.b	$00	; |	    |
   3074  19a3		       86		      .byte.b	$86	; |#	 ## |
   3075  19a4		       24		      .byte.b	$24	; |  #  #  |
   3076  19a5		       18		      .byte.b	$18	; |   ##   |
   3077  19a6		       24		      .byte.b	$24	; |  #  #  |
   3078  19a7		       24		      .byte.b	$24	; |  #  #  |
   3079  19a8		       7e		      .byte.b	$7E	; | ###### |
   3080  19a9		       5a		      .byte.b	$5A	; | # ## # |
   3081  19aa		       5b		      .byte.b	$5B	; | # ## ##|
   3082  19ab		       3c		      .byte.b	$3C	; |  ####  |
   3083  19ac
   3084  19ac
   3085  19ac							;	.byte	 $94,$00,$08 ; $f94c (*)
   3086  19ac							;    .byte   $1c,$3e,$3e,$3e,$3e,$1c,$08,$00 ; $f954 (*)
   3087  19ac							;    .byte   $8e,$7f,$7f,$7f,$14,$14,$00,$00 ; $f95c (*)
   3088  19ac							;    .byte   $2a,$2a,$00,$00,$14,$36,$22,$08 ; $f964 (*)
   3089  19ac							;    .byte   $08,$3e,$1c,$08,$00,$41,$63,$49 ; $f96c (*)
   3090  19ac							;    .byte   $08,$00,$00,$14,$14,$00,$00,$08 ; $f974 (*)
   3091  19ac							;    .byte   $6b,$6b,$08,$00,$22,$22,$00,$00 ; $f97c (*)
   3092  19ac							;   .byte   $08,$1c,$1c,$7f,$7f,$7f,$e4,$41 ; $f984 (*)
   3093  19ac							;    .byte   $41,$41,$41,$41,$41,$41,$41,$41 ; $f98c (*)
   3094  19ac							;    .byte   $41,$7f,$92,$77,$77,$63,$77,$14 ; $f994 (*)
   3095  19ac							;    .byte   $36,$55,$63,$77,$7f,$7f,$00,$86 ; $f99c (*)
   3096  19ac							;    .byte   $24,$18,$24,$24,$7e,$5a,$5b,$3c ; $f9a4 (*)
   3097  19ac
   3098  19ac
   3099  19ac
   3100  19ac
   3101  19ac
   3102  19ac		       00 00 00 00*	      .byte.b	$00,$00,$00,$00,$00,$00,$00,$00	; $f9ac (*)
   3103  19b4		       00 00 00 00*	      .byte.b	$00,$00,$00,$00,$00,$00,$00,$00	; $f9b4 (*)
   3104  19bc		       00 00 00 00*	      .byte.b	$00,$00,$00,$00,$00,$00,$00,$00	; $f9bc (*)
   3105  19c4		       00 b9 e4 81*	      .byte.b	$00,$b9,$e4,$81,$89,$55,$f9,$89	; $f9c4 (*)
   3106  19cc		       f9 81 fa 32*	      .byte.b	$f9,$81,$fa,$32,$1c,$89,$3e,$91	; $f9cc (*)
   3107  19d4		       7f 7f 7f 7f*	      .byte.b	$7f,$7f,$7f,$7f,$89,$1f,$07,$01	; $f9d4 (*)
   3108  19dc		       00 e9 fe 89*	      .byte.b	$00,$e9,$fe,$89,$3f,$7f,$f9,$91	; $f9dc (*)
   3109  19e4		       f9 89 3f f9*	      .byte.b	$f9,$89,$3f,$f9,$7f,$3f,$7f,$7f	; $f9e4 (*)
   3110  19ec		       00 00		      .byte.b	$00,$00	; $f9ec (*)
   3111  19ee				   Lf9ee
   3112  19ee		       00 00 00 00*	      .byte.b	$00,$00,$00,$00,$00,$00,$02,$02	; $f9ee (*)
   3113  19f6		       02 02 02 04*	      .byte.b	$02,$02,$02,$04,$04	; $f9f6 (*)
   3114  19fb		       06		      .byte.b	$06	; $f9fb (D)
   3115  19fc
   3116  19fc				   Lf9fc
   3117  19fc		       1c		      .byte.b	$1c	; |   ###  |		 $f9fc (G)
   3118  19fd		       36		      .byte.b	$36	; |  ## ## |		 $f9fd (G)
   3119  19fe		       63		      .byte.b	$63	; | ##   ##|		 $f9fe (G)
   3120  19ff		       36		      .byte.b	$36	; |  ## ## |		 $f9ff (G)
   3121  1a00
   3122  1a00		       18		      .byte.b	$18	; |   XX   |		 $fa00 (G)
   3123  1a01		       3c		      .byte.b	$3C	; |  XXXX  |		 $fa01 (G)
   3124  1a02		       00		      .byte.b	$00	; |	    |		 $fa02 (G)
   3125  1a03		       18		      .byte.b	$18	; |   XX   |		 $fa03 (G)
   3126  1a04		       1c		      .byte.b	$1C	; |   XXX  |		 $fa04 (G)
   3127  1a05		       18		      .byte.b	$18	; |   XX   |		 $fa05 (G)
   3128  1a06		       18		      .byte.b	$18	; |   XX   |		 $fa06 (G)
   3129  1a07		       0c		      .byte.b	$0C	; |	XX  |		 $fa07 (G)
   3130  1a08		       62		      .byte.b	$62	; | XX   X |		 $fa08 (G)
   3131  1a09		       43		      .byte.b	$43	; | X	  XX|		 $fa09 (G)
   3132  1a0a		       00		      .byte.b	$00	; |	    |		 $fa0a (G)
   3133  1a0b
   3134  1a0b		       18		      .byte.b	$18	; |   XX   |		 $fa0b (G)
   3135  1a0c		       3c		      .byte.b	$3C	; |  XXXX  |		 $fa0c (G)
   3136  1a0d		       00		      .byte.b	$00	; |	    |		 $fa0d (G)
   3137  1a0e		       18		      .byte.b	$18	; |   XX   |		 $fa0e (G)
   3138  1a0f		       38		      .byte.b	$38	; |  XXX   |		 $fa0f (G)
   3139  1a10		       1c		      .byte.b	$1C	; |   XXX  |		 $fa10 (G)
   3140  1a11		       18		      .byte.b	$18	; |   XX   |		 $fa11 (G)
   3141  1a12		       14		      .byte.b	$14	; |   X X  |		 $fa12 (G)
   3142  1a13		       64		      .byte.b	$64	; | XX  X  |		 $fa13 (G)
   3143  1a14		       46		      .byte.b	$46	; | X	 XX |		 $fa14 (G)
   3144  1a15		       00		      .byte.b	$00	; |	    |		 $fa15 (G)
   3145  1a16
   3146  1a16		       18		      .byte.b	$18	; |   XX   |		 $fa16 (G)
   3147  1a17		       3c		      .byte.b	$3C	; |  XXXX  |		 $fa17 (G)
   3148  1a18		       00		      .byte.b	$00	; |	    |		 $fa18 (G)
   3149  1a19		       38		      .byte.b	$38	; |  XXX   |		 $fa19 (G)
   3150  1a1a		       38		      .byte.b	$38	; |  XXX   |		 $fa1a (G)
   3151  1a1b		       18		      .byte.b	$18	; |   XX   |		 $fa1b (G)
   3152  1a1c		       18		      .byte.b	$18	; |   XX   |		 $fa1c (G)
   3153  1a1d		       28		      .byte.b	$28	; |  X X   |		 $fa1d (G)
   3154  1a1e		       48		      .byte.b	$48	; | X	X   |		 $fa1e (G)
   3155  1a1f		       8c		      .byte.b	$8C	; |X	XX  |		 $fa1f (G)
   3156  1a20		       00		      .byte.b	$00	; |	    |		 $fa20 (G)
   3157  1a21
   3158  1a21		       18		      .byte.b	$18	; |   XX   |		 $fa21 (G)
   3159  1a22		       3c		      .byte.b	$3C	; |  XXXX  |		 $fa22 (G)
   3160  1a23		       00		      .byte.b	$00	; |	    |		 $fa23 (G)
   3161  1a24		       38		      .byte.b	$38	; |  XXX   |		 $fa24 (G)
   3162  1a25		       58		      .byte.b	$58	; | X XX   |		 $fa25 (G)
   3163  1a26		       38		      .byte.b	$38	; |  XXX   |		 $fa26 (G)
   3164  1a27		       10		      .byte.b	$10	; |   X    |		 $fa27 (G)
   3165  1a28		       e8		      .byte.b	$E8	; |XXX X   |		 $fa28 (G)
   3166  1a29		       88		      .byte.b	$88	; |X	X   |		 $fa29 (G)
   3167  1a2a		       0c		      .byte.b	$0C	; |	XX  |		 $fa2a (G)
   3168  1a2b		       00		      .byte.b	$00	; |	    |		 $fa2b (G)
   3169  1a2c
   3170  1a2c		       18		      .byte.b	$18	; |   XX   |		 $fa2c (G)
   3171  1a2d		       3c		      .byte.b	$3C	; |  XXXX  |		 $fa2d (G)
   3172  1a2e		       00		      .byte.b	$00	; |	    |		 $fa2e (G)
   3173  1a2f		       30		      .byte.b	$30	; |  XX    |		 $fa2f (G)
   3174  1a30		       78		      .byte.b	$78	; | XXXX   |		 $fa30 (G)
   3175  1a31		       34		      .byte.b	$34	; |  XX X  |		 $fa31 (G)
   3176  1a32		       18		      .byte.b	$18	; |   XX   |		 $fa32 (G)
   3177  1a33		       60		      .byte.b	$60	; | XX     |		 $fa33 (G)
   3178  1a34		       50		      .byte.b	$50	; | X X    |		 $fa34 (G)
   3179  1a35		       18		      .byte.b	$18	; |   XX   |		 $fa35 (G)
   3180  1a36		       00		      .byte.b	$00	; |	    |		 $fa36 (G)
   3181  1a37
   3182  1a37		       18		      .byte.b	$18	; |   XX   |		 $fa37 (G)
   3183  1a38		       3c		      .byte.b	$3C	; |  XXXX  |		 $fa38 (G)
   3184  1a39		       00		      .byte.b	$00	; |	    |		 $fa39 (G)
   3185  1a3a		       30		      .byte.b	$30	; |  XX    |		 $fa3a (G)
   3186  1a3b		       38		      .byte.b	$38	; |  XXX   |		 $fa3b (G)
   3187  1a3c		       3c		      .byte.b	$3C	; |  XXXX  |		 $fa3c (G)
   3188  1a3d		       18		      .byte.b	$18	; |   XX   |		 $fa3d (G)
   3189  1a3e		       38		      .byte.b	$38	; |  XXX   |		 $fa3e (G)
   3190  1a3f		       20		      .byte.b	$20	; |  X     |		 $fa3f (G)
   3191  1a40		       30		      .byte.b	$30	; |  XX    |		 $fa40 (G)
   3192  1a41		       00		      .byte.b	$00	; |	    |		 $fa41 (G)
   3193  1a42
   3194  1a42		       18		      .byte.b	$18	; |   XX   |		 $fa42 (G)
   3195  1a43		       3c		      .byte.b	$3C	; |  XXXX  |		 $fa43 (G)
   3196  1a44		       00		      .byte.b	$00	; |	    |		 $fa44 (G)
   3197  1a45		       18		      .byte.b	$18	; |   XX   |		 $fa45 (G)
   3198  1a46		       38		      .byte.b	$38	; |  XXX   |		 $fa46 (G)
   3199  1a47		       1c		      .byte.b	$1C	; |   XXX  |		 $fa47 (G)
   3200  1a48		       18		      .byte.b	$18	; |   XX   |		 $fa48 (G)
   3201  1a49		       2c		      .byte.b	$2C	; |  X XX  |		 $fa49 (G)
   3202  1a4a		       20		      .byte.b	$20	; |  X     |		 $fa4a (G)
   3203  1a4b		       30		      .byte.b	$30	; |  XX    |		 $fa4b (G)
   3204  1a4c		       00		      .byte.b	$00	; |	    |		 $fa4c (G)
   3205  1a4d
   3206  1a4d		       18		      .byte.b	$18	; |   XX   |		 $fa4d (G)
   3207  1a4e		       3c		      .byte.b	$3C	; |  XXXX  |		 $fa4e (G)
   3208  1a4f		       00		      .byte.b	$00	; |	    |		 $fa4f (G)
   3209  1a50		       18		      .byte.b	$18	; |   XX   |		 $fa50 (G)
   3210  1a51		       18		      .byte.b	$18	; |   XX   |		 $fa51 (G)
   3211  1a52		       18		      .byte.b	$18	; |   XX   |		 $fa52 (G)
   3212  1a53		       08		      .byte.b	$08	; |	X   |		 $fa53 (G)
   3213  1a54		       16		      .byte.b	$16	; |   X XX |		 $fa54 (G)
   3214  1a55		       30		      .byte.b	$30	; |  XX    |		 $fa55 (G)
   3215  1a56		       20		      .byte.b	$20	; |  X     |		 $fa56 (G)
   3216  1a57		       00		      .byte.b	$00	; |	    |		 $fa57 (G)
   3217  1a58
   3218  1a58				   indy_sprite
   3219  1a58		       18		      .byte.b	$18	; |   ##   |		 $fa58 (G)
   3220  1a59		       3c		      .byte.b	$3c	; |  ####  |		 $fa59 (G)
   3221  1a5a		       00		      .byte.b	$00	; |	    |		 $fa5a (G)
   3222  1a5b		       18		      .byte.b	$18	; |   ##   |		 $fa5b (G)
   3223  1a5c		       3c		      .byte.b	$3c	; |  ####  |		 $fa5c (G)
   3224  1a5d		       5a		      .byte.b	$5a	; | # ## # |		 $fa5d (G)
   3225  1a5e		       3c		      .byte.b	$3c	; |  ####  |		 $fa5e (G)
   3226  1a5f		       18		      .byte.b	$18	; |   ##   |		 $fa5f (G)
   3227  1a60		       18		      .byte.b	$18	; |   ##   |		 $fa60 (G)
   3228  1a61		       3c		      .byte.b	$3c	; |  ####  |		 $fa61 (G)
   3229  1a62		       00		      .byte.b	$00	; |	    |		 $fa62 (G)
   3230  1a63
   3231  1a63		       3c		      .byte.b	$3C	; |  ####  |		 $fa63 (G)
   3232  1a64		       7e		      .byte.b	$7E	; | ###### |		 $fa64 (G)
   3233  1a65		       ff		      .byte.b	$FF	; |########|		 $fa65 (G)
   3234  1a66		       a5		      .byte.b	$A5	; |# #  # #|		 $fa66 (G)
   3235  1a67		       42		      .byte.b	$42	; | #	  # |		 $fa67 (G)
   3236  1a68		       42		      .byte.b	$42	; | #	  # |		 $fa68 (G)
   3237  1a69		       18		      .byte.b	$18	; |   ##   |		 $fa69 (G)
   3238  1a6a		       3c		      .byte.b	$3C	; |  ####  |		 $fa6a (G)
   3239  1a6b		       81		      .byte.b	$81	; |#	   #|		 $fa6b (G)
   3240  1a6c		       5a		      .byte.b	$5A	; | # ## # |		 $fa6c (G)
   3241  1a6d		       3c		      .byte.b	$3C	; |  ####  |		 $fa6d (G)
   3242  1a6e		       3c		      .byte.b	$3C	; |  ####  |		 $fa6e (G)
   3243  1a6f		       38		      .byte.b	$38	; |  ###   |		 $fa6f (G)
   3244  1a70		       18		      .byte.b	$18	; |   ##   |		 $fa70 (G)
   3245  1a71		       00		      .byte.b	$00	; |	    |		 $fa71 (G)
   3246  1a72
   3247  1a72
   3248  1a72
   3249  1a72		       10 10 00 f0*	      .byte.b	$10,$10,$00,$f0,$f0,$00,$10,$00	; $fa72 (*)
   3250  1a7a		       10 10 00 f0*	      .byte.b	$10,$10,$00,$f0,$00,$10,$10,$00	; $fa7a (*)
   3251  1a82		       10 00 f0 f0*	      .byte.b	$10,$00,$f0,$f0,$00,$f0,$f0,$00	; $fa82 (*)
   3252  1a8a		       f0 f0 00 10*	      .byte.b	$f0,$f0,$00,$10,$10,$00,$f0	; $fa8a (*)
   3253  1a91				   Lfa91
   3254  1a91		       00 00 e0 00*	      .byte.b	$00,$00,$e0,$00,$00,$c0,$ff,$ff	; $fa91 (*)
   3255  1a99		       00 ff ff f0*	      .byte.b	$00,$ff,$ff,$f0,$f0	; $fa99 (*)
   3256  1a9e
   3257  1a9e				   Lfa9e
   3258  1a9e		       00		      .byte.b	$00	; |	    |		 $fa9e (P)
   3259  1a9f
   3260  1a9f		       e0 00 e0 80*	      .byte.b	$e0,$00,$e0,$80,$00,$ff,$ff,$00	; $fa9f (*)
   3261  1aa7		       ff ff c0 00	      .byte.b	$ff,$ff,$c0,$00	; $faa7 (*)
   3262  1aab
   3263  1aab		       00		      .byte.b	$00	; |	    |		 $faab (P)
   3264  1aac
   3265  1aac				   Lfaac
   3266  1aac		       c0 f0 f0 f0*	      .byte.b	$c0,$f0,$f0,$f0,$f0,$f0,$c0,$c0	; $faac (*)
   3267  1ab4		       c0 f0 f0 f0*	      .byte.b	$c0,$f0,$f0,$f0,$f0	; $fab4 (*)
   3268  1ab9
   3269  1ab9		       c0		      .byte.b	$c0	; |**	    |		 $fab9 (P)
   3270  1aba
   3271  1aba		       f7 f7 f7 f7*	      .byte.b	$f7,$f7,$f7,$f7,$f7,$37,$37,$00	; $faba (*)
   3272  1ac2		       63 62 6b 5b*	      .byte.b	$63,$62,$6b,$5b,$6a,$5f,$5a,$5a	; $fac2 (*)
   3273  1aca		       6b 5e 67 5a*	      .byte.b	$6b,$5e,$67,$5a,$62,$6b,$5a,$6b	; $faca (*)
   3274  1ad2		       22 13 13 18*	      .byte.b	$22,$13,$13,$18,$18,$1e,$21,$13	; $fad2 (*)
   3275  1ada		       21 26 26 2b*	      .byte.b	$21,$26,$26,$2b,$2a,$2b,$31,$31	; $fada (*)
   3276  1ae2				   Lfae2
   3277  1ae2		       b4		      .byte.b	$b4	; $fae2 (*)
   3278  1ae3				   Lfae3
   3279  1ae3		       f0 02 f0 3f*	      .byte.b	$f0,$02,$f0,$3f,$f1	; $fae3 (*)
   3280  1ae8		       a5 f4		      .byte.b	$a5,$f4	; $fae8 (D)
   3281  1aea		       ae c0 b7 c9	      .byte.b	$ae,$c0,$b7,$c9	; $faea (*)
   3282  1aee				   Lfaee
   3283  1aee		       1b 18 17 17*	      .byte.b	$1b,$18,$17,$17,$18,$18,$1b,$1b	; $faee (*)
   3284  1af6		       1d 18 17 12*	      .byte.b	$1d,$18,$17,$12,$18,$17,$1b,$1d	; $faf6 (*)
   3285  1afe		       00 00		      .byte.b	$00,$00	; $fafe (*)
   3286  1b00
   3287  1b00		       00		      .byte.b	$00	; |	    |		 $fb00 (G)
   3288  1b01		       00		      .byte.b	$00	; |	    |		 $fb01 (G)
   3289  1b02		       00		      .byte.b	$00	; |	    |		 $fb02 (G)
   3290  1b03		       00		      .byte.b	$00	; |	    |		 $fb03 (G)
   3291  1b04		       00		      .byte.b	$00	; |	    |		 $fb04 (G)
   3292  1b05		       00		      .byte.b	$00	; |	    |		 $fb05 (G)
   3293  1b06		       00		      .byte.b	$00	; |	    |		 $fb06 (G)
   3294  1b07		       00		      .byte.b	$00	; |	    |		 $fb07 (G)
   3295  1b08
   3296  1b08		       71		      .byte.b	$71	; | ###   #|		 $fb08 (G)
   3297  1b09		       41		      .byte.b	$41	; | #	   #|		 $fb09 (G)
   3298  1b0a		       41		      .byte.b	$41	; | #	   #|		 $fb0a (G)
   3299  1b0b		       71		      .byte.b	$71	; | ###   #|		 $fb0b (G)
   3300  1b0c		       11		      .byte.b	$11	; |   #   #|		 $fb0c (G)
   3301  1b0d		       51		      .byte.b	$51	; | # #   #|		 $fb0d (G)
   3302  1b0e		       70		      .byte.b	$70	; | ###    |		 $fb0e (G)
   3303  1b0f		       00		      .byte.b	$00	; |	    |		 $fb0f (G)
   3304  1b10
   3305  1b10		       00		      .byte.b	$00	; |	    |		 $fb10 (G)
   3306  1b11		       01		      .byte.b	$01	; |	   #|		 $fb11 (G)
   3307  1b12		       3f		      .byte.b	$3F	; |  ######|		 $fb12(G)
   3308  1b13		       6b		      .byte.b	$6B	; | ## # ##|		 $fb12 (G)
   3309  1b14		       7f		      .byte.b	$7F	; | #######|		 $fb13 (G)
   3310  1b15		       01		      .byte.b	$01	; |	   #|		 $fb14 (G)
   3311  1b16		       00		      .byte.b	$00	; |	    |		 $fb15 (G)
   3312  1b17		       00		      .byte.b	$00	; |	    |		 $fb16 (G)
   3313  1b18
   3314  1b18		       77		      .byte.b	$77	; | ### ###|		 $fb17 (G)
   3315  1b19		       77		      .byte.b	$77	; | ### ###|		 $fb18 (G)
   3316  1b1a		       77		      .byte.b	$77	; | ### ###|		 $fb19 (G)
   3317  1b1b		       00		      .byte.b	$00	; |	    |		 $fb1a (G)
   3318  1b1c		       00		      .byte.b	$00	; |	    |		 $fb1b (G)
   3319  1b1d		       77		      .byte.b	$77	; | ### ###|		 $fb1c (G)
   3320  1b1e		       77		      .byte.b	$77	; | ### ###|		 $fb1d (G)
   3321  1b1f		       77		      .byte.b	$77	; | ### ###|		 $fb1e (G)
   3322  1b20
   3323  1b20		       1c		      .byte.b	$1C	; |   ###  |		 $fb1f (G)
   3324  1b21		       2a		      .byte.b	$2A	; |  # # # |		 $fb20 (G)
   3325  1b22		       55		      .byte.b	$55	; | # # # #|		 $fb21 (G)
   3326  1b23		       2a		      .byte.b	$2A	; |  # # # |		 $fb22 (G)
   3327  1b24		       55		      .byte.b	$55	; | # # # #|		 $fb23 (G)
   3328  1b25		       2a		      .byte.b	$2A	; |  # # # |		 $fb24 (G)
   3329  1b26		       1c		      .byte.b	$1C	; |   ###  |		 $fb25 (G)
   3330  1b27		       3e		      .byte.b	$3E	; |  ##### |		 $fb26 (G)
   3331  1b28
   3332  1b28		       3a		      .byte.b	$3A	; |  ### # |		 $fb27 (G)
   3333  1b29		       01		      .byte.b	$01	; |	   #|		 $fb28 (G)
   3334  1b2a		       7d		      .byte.b	$7D	; | ##### #|		 $fb29 (G)
   3335  1b2b		       01		      .byte.b	$01	; |	   #|		 $fb2a (G)
   3336  1b2c		       39		      .byte.b	$39	; |  ###  #|		 $fb2b (G)
   3337  1b2d		       02		      .byte.b	$02	; |	  # |		 $fb2c (G)
   3338  1b2e		       3c		      .byte.b	$3C	; |  ####  |		 $fb2d (G)
   3339  1b2f		       30		      .byte.b	$30	; |  ##    |		 $fb2e (G)
   3340  1b30
   3341  1b30		       2e		      .byte.b	$2E	; |  # ### |		 $fb2f (G)
   3342  1b31		       40		      .byte.b	$40	; | #	    |		 $fb30 (G)
   3343  1b32		       5f		      .byte.b	$5F	; | # #####|		 $fb31 (G)
   3344  1b33		       40		      .byte.b	$40	; | #	    |		 $fb32 (G)
   3345  1b34		       4e		      .byte.b	$4E	; | #	### |		 $fb33 (G)
   3346  1b35		       20		      .byte.b	$20	; |  #     |		 $fb34 (G)
   3347  1b36		       1e		      .byte.b	$1E	; |   #### |		 $fb35 (G)
   3348  1b37		       06		      .byte.b	$06	; |	 ## |		 $fb36 (G)
   3349  1b38
   3350  1b38		       00		      .byte.b	$00	; |	    |		 $fb37 (G)
   3351  1b39		       25		      .byte.b	$25	; |  #  # #|		 $fb38 (G)
   3352  1b3a		       52		      .byte.b	$52	; | # #  # |		 $fb39 (G)
   3353  1b3b		       7f		      .byte.b	$7F	; | #######|		 $fb3a (G)
   3354  1b3c		       50		      .byte.b	$50	; | # #    |		 $fb3b (G)
   3355  1b3d		       20		      .byte.b	$20	; |  #     |		 $fb3c (G)
   3356  1b3e		       00		      .byte.b	$00	; |	    |		 $fb3d (G)
   3357  1b3f		       00		      .byte.b	$00	; |	    |		 $fb3e (G)
   3358  1b40
   3359  1b40				   Lfb40
   3360  1b40		       ff		      .byte.b	$ff	; |########|		 $fb40 (G)
   3361  1b41		       66		      .byte.b	$66	; | ##  ## |		 $fb41 (G)
   3362  1b42		       24		      .byte.b	$24	; |  #  #  |		 $fb42 (G)
   3363  1b43		       24		      .byte.b	$24	; |  #  #  |		 $fb43 (G)
   3364  1b44		       66		      .byte.b	$66	; | ##  ## |		 $fb44 (G)
   3365  1b45		       e7		      .byte.b	$e7	; |###  ###|		 $fb45 (G)
   3366  1b46		       c3		      .byte.b	$c3	; |##	  ##|		 $fb46 (G)
   3367  1b47
   3368  1b47		       e7		      .byte.b	$e7	; |###  ###|		 $fb47 (G)
   3369  1b48
   3370  1b48		       17		      .byte.b	$17	; |   # ###|		 $fb48 (G)
   3371  1b49		       15		      .byte.b	$15	; |   # # #|		 $fb49 (G)
   3372  1b4a		       15		      .byte.b	$15	; |   # # #|		 $fb4a (G)
   3373  1b4b		       77		      .byte.b	$77	; | ### ###|		 $fb4b (G)
   3374  1b4c		       55		      .byte.b	$55	; | # # # #|		 $fb4c (G)
   3375  1b4d		       55		      .byte.b	$55	; | # # # #|		 $fb4d (G)
   3376  1b4e		       77		      .byte.b	$77	; | ### ###|		 $fb4e (G)
   3377  1b4f		       00		      .byte.b	$00	; |	    |		 $fb4f (G)
   3378  1b50
   3379  1b50		       21		      .byte.b	$21	; |  #    #|		 $fb50 (G)
   3380  1b51		       11		      .byte.b	$11	; |   #   #|		 $fb51 (G)
   3381  1b52		       09		      .byte.b	$09	; |	#  #|		 $fb52 (G)
   3382  1b53		       11		      .byte.b	$11	; |   #   #|		 $fb53 (G)
   3383  1b54		       22		      .byte.b	$22	; |  #   # |		 $fb54 (G)
   3384  1b55		       44		      .byte.b	$44	; | #	 #  |		 $fb55 (G)
   3385  1b56		       28		      .byte.b	$28	; |  # #   |		 $fb56 (G)
   3386  1b57		       10		      .byte.b	$10	; |   #    |		 $fb57 (G)
   3387  1b58
   3388  1b58		       01		      .byte.b	$01	; |	   #|		 $fb58 (G)
   3389  1b59		       03		      .byte.b	$03	; |	  ##|		 $fb59 (G)
   3390  1b5a		       07		      .byte.b	$07	; |	 ###|		 $fb5a (G)
   3391  1b5b		       0f		      .byte.b	$0F	; |	####|		 $fb5b (G)
   3392  1b5c		       06		      .byte.b	$06	; |	 ## |		 $fb5c (G)
   3393  1b5d		       0c		      .byte.b	$0C	; |	##  |		 $fb5d (G)
   3394  1b5e		       18		      .byte.b	$18	; |   ##   |		 $fb5e (G)
   3395  1b5f		       3c		      .byte.b	$3C	; |  ####  |		 $fb5f (G)
   3396  1b60
   3397  1b60		       79		      .byte.b	$79	; | ####  #|		 $fb60 (G)
   3398  1b61		       85		      .byte.b	$85	; |#	 # #|		 $fb61 (G)
   3399  1b62		       b5		      .byte.b	$b5	; |# ## # #|		 $fb62 (G)
   3400  1b63		       a5		      .byte.b	$a5	; |# #  # #|		 $fb63 (G)
   3401  1b64		       b5		      .byte.b	$b5	; |# ## # #|		 $fb64 (G)
   3402  1b65		       85		      .byte.b	$85	; |#	 # #|		 $fb65 (G)
   3403  1b66		       79		      .byte.b	$79	; | ####  #|		 $fb66 (G)
   3404  1b67		       00		      .byte.b	$00	; |	    |		 $fb67 (G)
   3405  1b68
   3406  1b68		       00		      .byte.b	$00	; |	    |		 $fb68 (G)
   3407  1b69		       60		      .byte.b	$60	; | ##     |		 $fb69 (G)
   3408  1b6a		       60		      .byte.b	$60	; | ##     |		 $fb6a (G)
   3409  1b6b		       78		      .byte.b	$78	; | ####   |		 $fb6b (G)
   3410  1b6c		       68		      .byte.b	$68	; | ## #   |		 $fb6c (G)
   3411  1b6d		       3f		      .byte.b	$3F	; |  ######|		 $fb6d (G)
   3412  1b6e		       5f		      .byte.b	$5F	; | # #####|		 $fb6e (G)
   3413  1b6f		       00		      .byte.b	$00	; |	    |		 $fb6f (G)
   3414  1b70
   3415  1b70		       08		      .byte.b	$08	; |	#   |		 $fb70 (G)
   3416  1b71		       1c		      .byte.b	$1C	; |   ###  |		 $fb71 (G)
   3417  1b72		       22		      .byte.b	$22	; |  #   # |		 $fb72 (G)
   3418  1b73		       49		      .byte.b	$49	; | #	#  #|		 $fb73 (G)
   3419  1b74		       6b		      .byte.b	$6B	; | ## # ##|		 $fb74 (G)
   3420  1b75		       00		      .byte.b	$00	; |	    |		 $fb75 (G)
   3421  1b76		       1c		      .byte.b	$1C	; |   ###  |		 $fb76 (G)
   3422  1b77		       08		      .byte.b	$08	; |	#   |		 $fb77 (G)
   3423  1b78
   3424  1b78		       7f		      .byte.b	$7F	; | #######|		 $fb78 (G)
   3425  1b79		       5d		      .byte.b	$5D	; | # ### #|		 $fb79 (G)
   3426  1b7a		       77		      .byte.b	$77	; | ### ###|		 $fb7a (G)
   3427  1b7b		       77		      .byte.b	$77	; | ### ###|		 $fb7b (G)
   3428  1b7c		       5d		      .byte.b	$5D	; | # ### #|		 $fb7c (G)
   3429  1b7d		       7f		      .byte.b	$7F	; | #######|		 $fb7d (G)
   3430  1b7e		       08		      .byte.b	$08	; |	#   |		 $fb7e (G)
   3431  1b7f		       1c		      .byte.b	$1C	; |   ###  |		 $fb7f (G)
   3432  1b80
   3433  1b80		       3e		      .byte.b	$3E	; |  ##### |		 $fb80 (G)
   3434  1b81		       1c		      .byte.b	$1C	; |   ###  |		 $fb81 (G)
   3435  1b82		       49		      .byte.b	$49	; | #	#  #|		 $fb82 (G)
   3436  1b83		       7f		      .byte.b	$7F	; | #######|		 $fb83 (G)
   3437  1b84		       49		      .byte.b	$49	; | #	#  #|		 $fb84 (G)
   3438  1b85		       1c		      .byte.b	$1C	; |   ###  |		 $fb85 (G)
   3439  1b86		       36		      .byte.b	$36	; |  ## ## |		 $fb86 (G)
   3440  1b87		       1c		      .byte.b	$1C	; |   ###  |		 $fb87 (G)
   3441  1b88
   3442  1b88		       16		      .byte.b	$16	; |   # ## |		 $fb88 (G)
   3443  1b89		       0b		      .byte.b	$0B	; |	# ##|		 $fb89 (G)
   3444  1b8a		       0d		      .byte.b	$0D	; |	## #|		 $fb8a (G)
   3445  1b8b		       05		      .byte.b	$05	; |	 # #|		 $fb8b (G)
   3446  1b8c		       17		      .byte.b	$17	; |   # ###|		 $fb8c (G)
   3447  1b8d		       36		      .byte.b	$36	; |  ## ## |		 $fb8d (G)
   3448  1b8e		       64		      .byte.b	$64	; | ##  #  |		 $fb8e (G)
   3449  1b8f		       04		      .byte.b	$04	; |	 #  |		 $fb8f (G)
   3450  1b90
   3451  1b90		       77		      .byte.b	$77	; | ### ###|		 $fb90 (G)
   3452  1b91		       36		      .byte.b	$36	; |  ## ## |		 $fb91 (G)
   3453  1b92		       14		      .byte.b	$14	; |   # #  |		 $fb92 (G)
   3454  1b93		       22		      .byte.b	$22	; |  #   # |		 $fb93 (G)
   3455  1b94		       22		      .byte.b	$22	; |  #   # |		 $fb94 (G)
   3456  1b95		       14		      .byte.b	$14	; |   # #  |		 $fb95 (G)
   3457  1b96		       36		      .byte.b	$36	; |  ## ## |		 $fb96 (G)
   3458  1b97		       77		      .byte.b	$77	; | ### ###|		 $fb97 (G)
   3459  1b98
   3460  1b98		       3e		      .byte.b	$3E	; |  ##### |		 $fb98 (G)
   3461  1b99		       41		      .byte.b	$41	; | #	   #|		 $fb99 (G)
   3462  1b9a		       41		      .byte.b	$41	; | #	   #|		 $fb9a (G)
   3463  1b9b		       49		      .byte.b	$49	; | #	#  #|		 $fb9b (G)
   3464  1b9c		       49		      .byte.b	$49	; | #	#  #|		 $fb9c (G)
   3465  1b9d		       49		      .byte.b	$49	; | #	#  #|		 $fb9d (G)
   3466  1b9e		       3e		      .byte.b	$3E	; |  ##### |		 $fb9e (G)
   3467  1b9f		       1c		      .byte.b	$1C	; |   ###  |		 $fb9f (G)
   3468  1ba0
   3469  1ba0		       3e		      .byte.b	$3E	; |  ##### |		 $fba0 (G)
   3470  1ba1		       41		      .byte.b	$41	; | #	   #|		 $fba1 (G)
   3471  1ba2		       41		      .byte.b	$41	; | #	   #|		 $fba2 (G)
   3472  1ba3		       49		      .byte.b	$49	; | #	#  #|		 $fba3 (G)
   3473  1ba4		       45		      .byte.b	$45	; | #	 # #|		 $fba4 (G)
   3474  1ba5		       43		      .byte.b	$43	; | #	  ##|		 $fba5 (G)
   3475  1ba6		       3e		      .byte.b	$3E	; |  ##### |		 $fba6 (G)
   3476  1ba7		       1c		      .byte.b	$1C	; |   ###  |		 $fba7 (G)
   3477  1ba8
   3478  1ba8		       3e		      .byte.b	$3E	; |  ##### |		 $fba8 (G)
   3479  1ba9		       41		      .byte.b	$41	; | #	   #|		 $fba9 (G)
   3480  1baa		       41		      .byte.b	$41	; | #	   #|		 $fbaa (G)
   3481  1bab		       4f		      .byte.b	$4F	; | #	####|		 $fbab (G)
   3482  1bac		       41		      .byte.b	$41	; | #	   #|		 $fbac (G)
   3483  1bad		       41		      .byte.b	$41	; | #	   #|		 $fbad (G)
   3484  1bae		       3e		      .byte.b	$3E	; |  ##### |		 $fbae (G)
   3485  1baf		       1c		      .byte.b	$1C	; |   ###  |		 $fbaf (G)
   3486  1bb0
   3487  1bb0		       3e		      .byte.b	$3E	; |  ##### |		 $fbb0 (G)
   3488  1bb1		       43		      .byte.b	$43	; | #	  ##|		 $fbb1 (G)
   3489  1bb2		       45		      .byte.b	$45	; | #	 # #|		 $fbb2 (G)
   3490  1bb3		       49		      .byte.b	$49	; | #	#  #|		 $fbb3 (G)
   3491  1bb4		       41		      .byte.b	$41	; | #	   #|		 $fbb4 (G)
   3492  1bb5		       41		      .byte.b	$41	; | #	   #|		 $fbb5 (G)
   3493  1bb6		       3e		      .byte.b	$3E	; |  ##### |		 $fbb6 (G)
   3494  1bb7		       1c		      .byte.b	$1C	; |   ###  |		 $fbb7 (G)
   3495  1bb8
   3496  1bb8		       3e		      .byte.b	$3E	; |  ##### |		 $fbb8 (G)
   3497  1bb9		       49		      .byte.b	$49	; | #	#  #|		 $fbb9 (G)
   3498  1bba		       49		      .byte.b	$49	; | #	#  #|		 $fbba (G)
   3499  1bbb		       49		      .byte.b	$49	; | #	#  #|		 $fbbb (G)
   3500  1bbc		       41		      .byte.b	$41	; | #	   #|		 $fbbc (G)
   3501  1bbd		       41		      .byte.b	$41	; | #	   #|		 $fbbd (G)
   3502  1bbe		       3e		      .byte.b	$3E	; |  ##### |		 $fbbe (G)
   3503  1bbf		       1c		      .byte.b	$1C	; |   ###  |		 $fbbf (G)
   3504  1bc0
   3505  1bc0		       3e		      .byte.b	$3E	; |  ##### |		 $fbc0 (G)
   3506  1bc1		       61		      .byte.b	$61	; | ##    #|		 $fbc1 (G)
   3507  1bc2		       51		      .byte.b	$51	; | # #   #|		 $fbc2 (G)
   3508  1bc3		       49		      .byte.b	$49	; | #	#  #|		 $fbc3 (G)
   3509  1bc4		       41		      .byte.b	$41	; | #	   #|		 $fbc4 (G)
   3510  1bc5		       41		      .byte.b	$41	; | #	   #|		 $fbc5 (G)
   3511  1bc6		       3e		      .byte.b	$3E	; |  ##### |		 $fbc6 (G)
   3512  1bc7		       1c		      .byte.b	$1C	; |   ###  |		 $fbc7 (G)
   3513  1bc8
   3514  1bc8		       3e		      .byte.b	$3E	; |  ##### |		 $fbc8 (G)
   3515  1bc9		       41		      .byte.b	$41	; | #	   #|		 $fbc9 (G)
   3516  1bca		       41		      .byte.b	$41	; | #	   #|		 $fbca (G)
   3517  1bcb		       79		      .byte.b	$79	; | ####  #|		 $fbcb (G)
   3518  1bcc		       41		      .byte.b	$41	; | #	   #|		 $fbcc (G)
   3519  1bcd		       41		      .byte.b	$41	; | #	   #|		 $fbcd (G)
   3520  1bce		       3e		      .byte.b	$3E	; |  ##### |		 $fbce (G)
   3521  1bcf		       1c		      .byte.b	$1C	; |   ###  |		 $fbcf (G)
   3522  1bd0
   3523  1bd0		       3e		      .byte.b	$3E	; |  ##### |		 $fbd0 (G)
   3524  1bd1		       41		      .byte.b	$41	; | #	   #|		 $fbd1 (G)
   3525  1bd2		       41		      .byte.b	$41	; | #	   #|		 $fbd2 (G)
   3526  1bd3		       49		      .byte.b	$49	; | #	#  #|		 $fbd3 (G)
   3527  1bd4		       51		      .byte.b	$51	; | # #   #|		 $fbd4 (G)
   3528  1bd5		       61		      .byte.b	$61	; | ##    #|		 $fbd5 (G)
   3529  1bd6		       3e		      .byte.b	$3E	; |  ##### |		 $fbd6 (G)
   3530  1bd7		       1c		      .byte.b	$1C	; |   ###  |		 $fbd7 (G)
   3531  1bd8
   3532  1bd8		       49		      .byte.b	$49	; | #	#  #|		 $fbd8 (G)
   3533  1bd9		       49		      .byte.b	$49	; | #	#  #|		 $fbd9 (G)
   3534  1bda		       49		      .byte.b	$49	; | #	#  #|		 $fbda (G)
   3535  1bdb		       c9		      .byte.b	$C9	; |##	#  #|		 $fbdb (G)
   3536  1bdc		       49		      .byte.b	$49	; | #	#  #|		 $fbdc (G)
   3537  1bdd		       49		      .byte.b	$49	; | #	#  #|		 $fbdd (G)
   3538  1bde		       be		      .byte.b	$BE	; |# ##### |		 $fbde (G)
   3539  1bdf		       00		      .byte.b	$00	; |	    |		 $fbdf (G) 
   3540  1be0
   3541  1be0		       55		      .byte.b	$55	; | # # # #|		 $fbe0 (G)
   3542  1be1		       55		      .byte.b	$55	; | # # # #|		 $fbe1 (G)
   3543  1be2		       55		      .byte.b	$55	; | # # # #|		 $fbe2 (G)
   3544  1be3		       d9		      .byte.b	$d9	; |## ##  #|		 $fbe3 (G)
   3545  1be4		       55		      .byte.b	$55	; | # # # #|		 $fbe4 (G)
   3546  1be5		       55		      .byte.b	$55	; | # # # #|		 $fbe5 (G)
   3547  1be6		       99		      .byte.b	$99	; |#  ##  #|		 $fbe6 (G)
   3548  1be7		       00		      .byte.b	$00	; |	    |		 $fbe7 (G)
   3549  1be8
   3550  1be8				   Lfbe8
   3551  1be8		       14		      .byte.b	$14	; $fbe8 (D)
   3552  1be9		       14 14 0f 10*	      .byte.b	$14,$14,$0f,$10,$12,$0b,$0b,$0b	; $fbe9 (*)
   3553  1bf1		       10 12 14 17*	      .byte.b	$10,$12,$14,$17,$17,$17,$17	; $fbf1 (*)
   3554  1bf8		       18 1b 0f 0f*	      .byte.b	$18,$1b,$0f,$0f,$0f,$14,$17,$18	; $fbf8 (D)
   3555  1c00
   3556  1c00
   3557  1c00		       14		      .byte.b	$14	; |   # #  |		 $fc00 (G)
   3558  1c01		       3c		      .byte.b	$3C	; |  ####  |		 $fc01 (G)
   3559  1c02		       7e		      .byte.b	$7E	; | ###### |		 $fc02 (G)
   3560  1c03		       00		      .byte.b	$00	; |	    |		 $fc03 (G)
   3561  1c04		       30		      .byte.b	$30	; |  ##    |		 $fc04 (G)
   3562  1c05		       38		      .byte.b	$38	; |  ###   |		 $fc05 (G)
   3563  1c06		       3c		      .byte.b	$3C	; |  ####  |		 $fc06 (G)
   3564  1c07		       3e		      .byte.b	$3E	; |  ##### |		 $fc07 (G)
   3565  1c08		       3f		      .byte.b	$3F	; |  ######|		 $fc08 (G)
   3566  1c09		       7f		      .byte.b	$7F	; | #######|		 $fc09 (G)
   3567  1c0a		       7f		      .byte.b	$7F	; | #######|		 $fc0a (G)
   3568  1c0b		       7f		      .byte.b	$7F	; | #######|		 $fc0b (G)
   3569  1c0c		       11		      .byte.b	$11	; |   #   #|		 $fc0c (G)
   3570  1c0d		       11		      .byte.b	$11	; |   #   #|		 $fc0d (G)
   3571  1c0e		       33		      .byte.b	$33	; |  ##  ##|		 $fc0e (G)
   3572  1c0f		       00		      .byte.b	$00	; |	    |		 $fc0f (G)
   3573  1c10
   3574  1c10		       14		      .byte.b	$14	; |   # #  |		 $fc10 (G)
   3575  1c11		       3c		      .byte.b	$3C	; |  ####  |		 $fc11 (G)
   3576  1c12		       7e		      .byte.b	$7E	; | ###### |		 $fc12 (G)
   3577  1c13		       00		      .byte.b	$00	; |	    |		 $fc13 (G)
   3578  1c14		       30		      .byte.b	$30	; |  ##    |		 $fc14 (G)
   3579  1c15		       38		      .byte.b	$38	; |  ###   |		 $fc15 (G)
   3580  1c16		       3c		      .byte.b	$3C	; |  ####  |		 $fc16 (G)
   3581  1c17		       3e		      .byte.b	$3E	; |  ##### |		 $fc17 (G)
   3582  1c18		       3f		      .byte.b	$3F	; |  ######|		 $fc18 (G)
   3583  1c19		       7f		      .byte.b	$7F	; | #######|		 $fc19 (G)
   3584  1c1a		       7f		      .byte.b	$7F	; | #######|		 $fc1a (G)
   3585  1c1b		       7f		      .byte.b	$7F	; | #######|		 $fc1b (G)
   3586  1c1c		       22		      .byte.b	$22	; |  #   # |		 $fc1c (G)
   3587  1c1d		       22		      .byte.b	$22	; |  #   # |		 $fc1d (G)
   3588  1c1e		       66		      .byte.b	$66	; | ##  ## |		 $fc1e (G)
   3589  1c1f		       00		      .byte.b	$00	; |	    |		 $fc1f (G)
   3590  1c20
   3591  1c20		       14		      .byte.b	$14	; |   # #  |		 $fc20 (G)
   3592  1c21		       3c		      .byte.b	$3C	; |  ####  |		 $fc21 (G)
   3593  1c22		       7e		      .byte.b	$7E	; | ###### |		 $fc22 (G)
   3594  1c23		       00		      .byte.b	$00	; |	    |		 $fc23 (G)
   3595  1c24		       30		      .byte.b	$30	; |  ##    |		 $fc24 (G)
   3596  1c25		       38		      .byte.b	$38	; |  ###   |		 $fc25 (G)
   3597  1c26		       3c		      .byte.b	$3C	; |  ####  |		 $fc26 (G)
   3598  1c27		       3e		      .byte.b	$3E	; |  ##### |		 $fc27 (G)
   3599  1c28		       3f		      .byte.b	$3F	; |  ######|		 $fc28 (G)
   3600  1c29		       7f		      .byte.b	$7F	; | #######|		 $fc29 (G)
   3601  1c2a		       7f		      .byte.b	$7F	; | #######|		 $fc2a (G)
   3602  1c2b		       7f		      .byte.b	$7F	; | #######|		 $fc2b (G)
   3603  1c2c		       44		      .byte.b	$44	; | #	 #  |		 $fc2c (G)
   3604  1c2d		       44		      .byte.b	$44	; | #	 #  |		 $fc2d (G)
   3605  1c2e		       cc		      .byte.b	$CC	; |##	##  |		 $fc2e (G)
   3606  1c2f		       00		      .byte.b	$00	; |	    |		 $fc2f (G)
   3607  1c30
   3608  1c30		       14		      .byte.b	$14	; |   # #  |		 $fc30 (G)
   3609  1c31		       3c		      .byte.b	$3C	; |  ####  |		 $fc31 (G)
   3610  1c32		       7e		      .byte.b	$7E	; | ###### |		 $fc32 (G)
   3611  1c33		       00		      .byte.b	$00	; |	    |		 $fc33 (G)
   3612  1c34		       30		      .byte.b	$30	; |  ##    |		 $fc34 (G)
   3613  1c35		       38		      .byte.b	$38	; |  ###   |		 $fc35 (G)
   3614  1c36		       3c		      .byte.b	$3C	; |  ####  |		 $fc36 (G)
   3615  1c37		       3e		      .byte.b	$3E	; |  ##### |		 $fc37 (G)
   3616  1c38		       3f		      .byte.b	$3F	; |  ######|		 $fc38 (G)
   3617  1c39		       7f		      .byte.b	$7F	; | #######|		 $fc39 (G)
   3618  1c3a		       7f		      .byte.b	$7F	; | #######|		 $fc3a (G)
   3619  1c3b		       7f		      .byte.b	$7F	; | #######|		 $fc3b (G)
   3620  1c3c		       08		      .byte.b	$08	; |	#   |		 $fc3c (G)
   3621  1c3d		       08		      .byte.b	$08	; |	#   |		 $fc3d (G)
   3622  1c3e		       18		      .byte.b	$18	; |   ##   |		 $fc3e (G)
   3623  1c3f		       00		      .byte.b	$00	; |	    |		 $fc3f (G)
   3624  1c40
   3625  1c40
   3626  1c40
   3627  1c40				   Lfc40
   3628  1c40		       00 10 20 30*	      .byte.b	$00,$10,$20,$30,$7c,$0f,$7c,$00	; $fc40 (*)
   3629  1c48		       0a 02 04 06*	      .byte.b	$0a,$02,$04,$06,$08,$0a,$08,$06	; $fc48 (*)
   3630  1c50		       98 98 9e 9e*	      .byte.b	$98,$98,$9e,$9e,$00,$00,$00,$00	; $fc50 (*)
   3631  1c58		       00 00 00 00*	      .byte.b	$00,$00,$00,$00,$00,$00,$00,$08	; $fc58 (*)
   3632  1c60		       1c 3c 3e 7f*	      .byte.b	$1c,$3c,$3e,$7f,$ff,$ff,$ff,$ff	; $fc60 (*)
   3633  1c68		       ff ff ff ff*	      .byte.b	$ff,$ff,$ff,$ff,$3e,$3c,$3a,$38	; $fc68 (*)
   3634  1c70		       36 34 32 20*	      .byte.b	$36,$34,$32,$20,$10,$00,$00,$00	; $fc70 (*)
   3635  1c78		       00 08 00 02*	      .byte.b	$00,$08,$00,$02,$0a,$0c,$0e,$01	; $fc78 (*)
   3636  1c80		       03 04 06 05*	      .byte.b	$03,$04,$06,$05,$07,$0d,$0f,$0b	; $fc80 (*)
   3637  1c88				   Lfc88
   3638  1c88		       e0		      .byte.b	$e0	; $fc88 (*)
   3639  1c89				   Lfc89
   3640  1c89		       f6 32 f8 3d*	      .byte.b	$f6,$32,$f8,$3d,$f8,$ae,$f6,$27	; $fc89 (*)
   3641  1c91		       f7 62 f6 a7*	      .byte.b	$f7,$62,$f6,$a7,$f7,$3e,$f5,$df	; $fc91 (*)
   3642  1c99		       f7 34 f5 9c*	      .byte.b	$f7,$34,$f5,$9c,$f5,$37,$f6,$29	; $fc99 (*)
   3643  1ca1		       f6 1a 38 09*	      .byte.b	$f6,$1a,$38,$09,$26,$26,$46,$1a	; $fca1 (*)
   3644  1ca9		       38 04 11 10*	      .byte.b	$38,$04,$11,$10,$12	; $fca9 (*)
   3645  1cae
   3646  1cae
   3647  1cae		       54		      .byte.b	$54	; | # # #  |		 $fcae (G)
   3648  1caf		       fc		      .byte.b	$FC	; |######  |		 $fcaf (G)
   3649  1cb0		       5f		      .byte.b	$5F	; | # #####|		 $fcb0 (G)
   3650  1cb1		       fe		      .byte.b	$FE	; |####### |		 $fcb1 (G)
   3651  1cb2		       7f		      .byte.b	$7F	; | #######|		 $fcb2 (G)
   3652  1cb3		       fa		      .byte.b	$FA	; |##### # |		 $fcb3 (G)
   3653  1cb4		       3f		      .byte.b	$3F	; |  ######|		 $fcb4 (G)
   3654  1cb5		       2a		      .byte.b	$2A	; |  # # # |		 $fcb5 (G)
   3655  1cb6		       00		      .byte.b	$00	; |	    |		 $fcb6 (G)
   3656  1cb7		       54		      .byte.b	$54	; | # # #  |		 $fcb7 (G)
   3657  1cb8		       5f		      .byte.b	$5F	; | # #####|		 $fcb8 (G)
   3658  1cb9		       fc		      .byte.b	$FC	; |######  |		 $fcb9 (G)
   3659  1cba		       7f		      .byte.b	$7F	; | #######|		 $fcba (G)
   3660  1cbb		       fe		      .byte.b	$FE	; |####### |		 $fcbb (G)
   3661  1cbc		       3f		      .byte.b	$3F	; |  ######|		 $fcbc (G)
   3662  1cbd		       fa		      .byte.b	$FA	; |##### # |		 $fcbd (G)
   3663  1cbe		       2a		      .byte.b	$2A	; |  # # # |		 $fcbe (G)
   3664  1cbf		       00		      .byte.b	$00	; |	    |		 $fcbf (G)
   3665  1cc0		       2a		      .byte.b	$2A	; |  # # # |		 $fcc0 (G)
   3666  1cc1		       fa		      .byte.b	$FA	; |##### # |		 $fcc1 (G)
   3667  1cc2		       3f		      .byte.b	$3F	; |  ######|		 $fcc2 (G)
   3668  1cc3		       fe		      .byte.b	$FE	; |####### |		 $fcc3 (G)
   3669  1cc4		       7f		      .byte.b	$7F	; | #######|		 $fcc4 (G)
   3670  1cc5		       fa		      .byte.b	$FA	; |##### # |		 $fcc5 (G)
   3671  1cc6		       5f		      .byte.b	$5F	; | # #####|		 $fcc6 (G)
   3672  1cc7		       54		      .byte.b	$54	; | # # #  |		 $fcc7 (G)
   3673  1cc8		       00		      .byte.b	$00	; |	    |		 $fcc8 (G)
   3674  1cc9		       2a		      .byte.b	$2A	; |  # # # |		 $fcc9 (G)
   3675  1cca		       3f		      .byte.b	$3F	; |  ######|		 $fcca (G)
   3676  1ccb		       fa		      .byte.b	$FA	; |##### # |		 $fccb (G)
   3677  1ccc		       7f		      .byte.b	$7F	; | #######|		 $fccc (G)
   3678  1ccd		       fe		      .byte.b	$FE	; |####### |		 $fccd (G)
   3679  1cce		       5f		      .byte.b	$5F	; | # #####|		 $fcce (G)
   3680  1ccf		       fc		      .byte.b	$FC	; |######  |		 $fccf (G)
   3681  1cd0		       54		      .byte.b	$54	; | # # #  |		 $fcd0 (G)
   3682  1cd1
   3683  1cd1
   3684  1cd1		       00 8b 8a 86*	      .byte.b	$00,$8b,$8a,$86,$87,$85,$89,$03	; $fcd1 (*)
   3685  1cd9		       01 00 01 03*	      .byte.b	$01,$00,$01,$03,$02,$01,$03,$02	; $fcd9 (*)
   3686  1ce1		       03 01 02 04*	      .byte.b	$03,$01,$02,$04,$08,$10,$20,$40	; $fce1 (*)
   3687  1ce9		       80		      .byte.b	$80	; $fce9 (*)
   3688  1cea
   3689  1cea				   Lfcea
   3690  1cea		       6a		      ror		;2	    *
   3691  1ceb		       b0 02		      bcs	Lfcef	;2/3	    *
   3692  1ced		       d6 ce		      dec	enemy_y,x	;6   =  10 *
   3693  1cef				   Lfcef
   3694  1cef		       6a		      ror		;2	    *
   3695  1cf0		       b0 02		      bcs	Lfcf4	;2/3	    *
   3696  1cf2		       f6 ce		      inc	enemy_y,x	;6   =  10 *
   3697  1cf4				   Lfcf4
   3698  1cf4		       6a		      ror		;2	    *
   3699  1cf5		       b0 02		      bcs	Lfcf9	;2/3	    *
   3700  1cf7		       d6 c8		      dec	enemy_x,x	;6   =  10 *
   3701  1cf9				   Lfcf9
   3702  1cf9		       6a		      ror		;2	    *
   3703  1cfa		       b0 02		      bcs	Lfcfe	;2/3	    *
   3704  1cfc		       f6 c8		      inc	enemy_x,x	;6   =  10 *
   3705  1cfe				   Lfcfe
   3706  1cfe		       60		      rts		;6   =   6 *
   3707  1cff
   3708  1cff		       00 f2 40 f2*	      .byte.b	$00,$f2,$40,$f2,$c0,$12,$10,$f2	; $fcff (*)
   3709  1d07		       00 12 20 02*	      .byte.b	$00,$12,$20,$02,$b0,$f2,$30,$12	; $fd07 (*)
   3710  1d0f		       00 f2 40 f2*	      .byte.b	$00,$f2,$40,$f2,$d0,$12,$10,$02	; $fd0f (*)
   3711  1d17		       00 02 30 12*	      .byte.b	$00,$02,$30,$12,$b0,$02,$20,$12	; $fd17 (*)
   3712  1d1f		       00 ff ff fc*	      .byte.b	$00,$ff,$ff,$fc,$f0,$e0,$e0,$c0	; $fd1f (*)
   3713  1d27		       80 00 00 00*	      .byte.b	$80,$00,$00,$00,$00,$00,$00,$00	; $fd27 (*)
   3714  1d2f		       00 00 00 00*	      .byte.b	$00,$00,$00,$00,$00,$00,$00,$00	; $fd2f (*)
   3715  1d37		       00 00 00 00*	      .byte.b	$00,$00,$00,$00,$00,$00,$00,$00	; $fd37 (*)
   3716  1d3f		       00 00 80 80*	      .byte.b	$00,$00,$80,$80,$c0,$e0,$e0,$f0	; $fd3f (*)
   3717  1d47		       fe ff ff ff*	      .byte.b	$fe,$ff,$ff,$ff,$ff,$fc,$f0,$e0	; $fd47 (*)
   3718  1d4f		       e0 c0 80 00*	      .byte.b	$e0,$c0,$80,$00,$00,$00,$00,$00	; $fd4f (*)
   3719  1d57		       00 00 00 00*	      .byte.b	$00,$00,$00,$00,$00,$00,$c0,$f0	; $fd57 (*)
   3720  1d5f		       f8 fe fe f8*	      .byte.b	$f8,$fe,$fe,$f8,$f0,$e0,$c0,$80	; $fd5f (*)
   3721  1d67		       00 00 00 00*	      .byte.b	$00,$00,$00,$00,$00,$00,$00,$00	; $fd67 (*)
   3722  1d6f		       00 02 07 07*	      .byte.b	$00,$02,$07,$07,$0f,$0f,$0f,$07	; $fd6f (*)
   3723  1d77		       07 02 00 00*	      .byte.b	$07,$02,$00,$00,$00,$00,$00,$00	; $fd77 (*)
   3724  1d7f		       00 00 04 0e*	      .byte.b	$00,$00,$04,$0e,$0e,$0f,$0e,$06	; $fd7f (*)
   3725  1d87		       00 00 00 00*	      .byte.b	$00,$00,$00,$00,$00,$00,$00,$00	; $fd87 (*)
   3726  1d8f		       00 00 02 07*	      .byte.b	$00,$00,$02,$07,$07,$0f,$1f,$0f	; $fd8f (*)
   3727  1d97		       07 07 02 00*	      .byte.b	$07,$07,$02,$00,$00,$00,$00,$00	; $fd97 (*)
   3728  1d9f		       00 00 00 00*	      .byte.b	$00,$00,$00,$00,$00,$00,$00,$01	; $fd9f (*)
   3729  1da7		       03 01 00 00*	      .byte.b	$03,$01,$00,$00,$00,$00,$00,$80	; $fda7 (*)
   3730  1daf		       80 c0 e0 f8*	      .byte.b	$80,$c0,$e0,$f8,$e0,$c0,$80,$80	; $fdaf (*)
   3731  1db7		       00 00 00 c0*	      .byte.b	$00,$00,$00,$c0,$e0,$e0,$c0,$00	; $fdb7 (*)
   3732  1dbf		       00 00 00 00*	      .byte.b	$00,$00,$00,$00,$00,$00,$00,$00	; $fdbf (*)
   3733  1dc7		       00 80 80 80*	      .byte.b	$00,$80,$80,$80,$80,$80,$80,$00	; $fdc7 (*)
   3734  1dcf		       00 00 00 00*	      .byte.b	$00,$00,$00,$00,$00,$00,$00,$00	; $fdcf (*)
   3735  1dd7		       00 c0 e0 e0*	      .byte.b	$00,$c0,$e0,$e0,$c0,$00,$00,$00	; $fdd7 (*)
   3736  1ddf		       00 22 41 08*	      .byte.b	$00,$22,$41,$08,$14,$08,$41,$22	; $fddf (*)
   3737  1de7		       00 41 08 14*	      .byte.b	$00,$41,$08,$14,$2a,$14,$08,$41	; $fde7 (*)
   3738  1def		       00 08 14 3e*	      .byte.b	$00,$08,$14,$3e,$55,$3e,$14,$08	; $fdef (*)
   3739  1df7		       00 14 3e 63*	      .byte.b	$00,$14,$3e,$63,$2a,$63,$3e,$14	; $fdf7 (*)
   3740  1dff		       00 07 07 07*	      .byte.b	$00,$07,$07,$07,$03,$03,$03,$01	; $fdff (*)
   3741  1e07		       00 00 00 00*	      .byte.b	$00,$00,$00,$00,$00,$00,$00,$00	; $fe07 (*)
   3742  1e0f		       30 78 7c 3c*	      .byte.b	$30,$78,$7c,$3c,$3c,$18,$08,$00	; $fe0f (*)
   3743  1e17		       00 00 00 00*	      .byte.b	$00,$00,$00,$00,$00,$00,$00,$00	; $fe17 (*)
   3744  1e1f		       00 00 00 00*	      .byte.b	$00,$00,$00,$00,$00,$00,$00,$00	; $fe1f (*)
   3745  1e27		       00 00 00 00*	      .byte.b	$00,$00,$00,$00,$00,$00,$00,$01	; $fe27 (*)
   3746  1e2f		       0f 01 00 00*	      .byte.b	$0f,$01,$00,$00,$00,$00,$00,$00	; $fe2f (*)
   3747  1e37		       00 80 c0 e0*	      .byte.b	$00,$80,$c0,$e0,$f8,$fc,$fe,$fc	; $fe37 (*)
   3748  1e3f		       f0 e0 c0 c0*	      .byte.b	$f0,$e0,$c0,$c0,$80,$80,$00,$00	; $fe3f (*)
   3749  1e47		       00 00 00 00*	      .byte.b	$00,$00,$00,$00,$00,$00,$00,$00	; $fe47 (*)
   3750  1e4f		       00 03 07 03*	      .byte.b	$00,$03,$07,$03,$01,$00,$00,$00	; $fe4f (*)
   3751  1e57		       00 00 80 e0*	      .byte.b	$00,$00,$80,$e0,$f8,$f8,$f8,$f8	; $fe57 (*)
   3752  1e5f		       f0 c0 80 00*	      .byte.b	$f0,$c0,$80,$00,$00,$00,$00,$00	; $fe5f (*)
   3753  1e67		       00 00 00 03*	      .byte.b	$00,$00,$00,$03,$0f,$1f,$3f,$3e	; $fe67 (*)
   3754  1e6f		       3c 38 30 00*	      .byte.b	$3c,$38,$30,$00,$00,$00,$00,$00	; $fe6f (*)
   3755  1e77		       00 07 07 07*	      .byte.b	$00,$07,$07,$07,$03,$03,$03,$01	; $fe77 (*)
   3756  1e7f		       00 00 00 00*	      .byte.b	$00,$00,$00,$00,$00,$00,$80,$80	; $fe7f (*)
   3757  1e87		       c0 e0 e0 c0*	      .byte.b	$c0,$e0,$e0,$c0,$c0,$80,$00,$00	; $fe87 (*)
   3758  1e8f		       00 00 00 00*	      .byte.b	$00,$00,$00,$00,$00,$00,$00,$00	; $fe8f (*)
   3759  1e97		       30 38 1c 1e*	      .byte.b	$30,$38,$1c,$1e,$0e,$0c,$0c,$00	; $fe97 (*)
   3760  1e9f		       00 00 80 80*	      .byte.b	$00,$00,$80,$80,$c0,$f0,$fc,$ff	; $fe9f (*)
   3761  1ea7		       ff ff ff fe*	      .byte.b	$ff,$ff,$ff,$fe,$fc,$f8,$f0,$e0	; $fea7 (*)
   3762  1eaf		       00 00 00 00*	      .byte.b	$00,$00,$00,$00,$00,$00,$00,$00	; $feaf (*)
   3763  1eb7		       00 00 80 e0*	      .byte.b	$00,$00,$80,$e0,$f0,$e0,$80,$00	; $feb7 (*)
   3764  1ebf		       00 00 00 00*	      .byte.b	$00,$00,$00,$00,$00,$00,$00,$00	; $febf (*)
   3765  1ec7		       03 07 03 03*	      .byte.b	$03,$07,$03,$03,$01,$01,$00,$00	; $fec7 (*)
   3766  1ecf		       00 80 c0 f0*	      .byte.b	$00,$80,$c0,$f0,$f0,$e0,$e0,$c0	; $fecf (*)
   3767  1ed7		       c0 80 80 00*	      .byte.b	$c0,$80,$80,$00,$00,$00,$00,$00	; $fed7 (*)
   3768  1edf		       00 00 03 07*	      .byte.b	$00,$00,$03,$07,$07,$03,$01,$00	; $fedf (*)
   3769  1ee7		       00 c0 e0 f0*	      .byte.b	$00,$c0,$e0,$f0,$f8,$f8,$fc,$fc	; $fee7 (*)
   3770  1eef		       fc		      .byte.b	$fc	; $feef (*)
   3771  1ef0
   3772  1ef0				   Lfef0
   3773  1ef0		       3c		      .byte.b	$3c	; |  ####  |		 $fef0 (G)
   3774  1ef1		       3c		      .byte.b	$3c	; |  ####  |		 $fef1 (G)
   3775  1ef2		       7e		      .byte.b	$7e	; | ###### |		 $fef2 (G)
   3776  1ef3		       ff		      .byte.b	$ff	; |########|		 $fef3 (G)
   3777  1ef4
   3778  1ef4				   Lfef4
   3779  1ef4		       b5 8c		      lda	ram_8C,x	;4	   
   3780  1ef6		       30 01		      bmi	Lfef9	;2/3	   
   3781  1ef8		       60		      rts		;6   =  12
   3782  1ef9
   3783  1ef9				   Lfef9
   3784  1ef9		       20 ea fc 	      jsr	Lfcea	;6	    *
   3785  1efc		       20 e1 f8 	      jsr	Lf8e1	;6	    *
   3786  1eff		       60		      rts		;6   =  18 *
   3787  1f00
   3788  1f00		       80 00 07 04*	      .byte.b	$80,$00,$07,$04,$77,$71,$75,$57	; $ff00 (*)
   3789  1f08		       50 00 d6 1c*	      .byte.b	$50,$00,$d6,$1c,$36,$1c,$49,$7f	; $ff08 (*)
   3790  1f10		       49 1c 3e 00*	      .byte.b	$49,$1c,$3e,$00,$b9,$8a,$a1,$81	; $ff10 (*)
   3791  1f18		       00 00 00 00*	      .byte.b	$00,$00,$00,$00,$00,$00,$1c,$70	; $ff18 (*)
   3792  1f20		       07 70 0e 00*	      .byte.b	$07,$70,$0e,$00,$cf,$a6,$00,$81	; $ff20 (*)
   3793  1f28		       77 36 14 22*	      .byte.b	$77,$36,$14,$22,$ae,$14,$36,$77	; $ff28 (*)
   3794  1f30		       00 bf ce 00*	      .byte.b	$00,$bf,$ce,$00,$ef,$81,$00,$00	; $ff30 (*)
   3795  1f38		       00 00 00 00*	      .byte.b	$00,$00,$00,$00,$68,$2f,$0a,$0c	; $ff38 (*)
   3796  1f40		       08 00 80 81*	      .byte.b	$08,$00,$80,$81,$00,$00,$07,$01	; $ff40 (*)
   3797  1f48		       57 54 77 50*	      .byte.b	$57,$54,$77,$50,$50,$00,$00,$00	; $ff48 (*)
   3798  1f50		       00 80 7e 86*	      .byte.b	$00,$80,$7e,$86,$80,$a6,$5a,$7e	; $ff50 (*)
   3799  1f58		       80 7f 00 b1*	      .byte.b	$80,$7f,$00,$b1,$f9,$f6,$06,$1e	; $ff58 (*)
   3800  1f60		       12 1e 12 1e*	      .byte.b	$12,$1e,$12,$1e,$7f,$00,$b9,$00	; $ff60 (*)
   3801  1f68		       d4 00 81 1c*	      .byte.b	$d4,$00,$81,$1c,$2a,$55,$2a,$14	; $ff68 (*)
   3802  1f70		       3e 00 c1 e6*	      .byte.b	$3e,$00,$c1,$e6,$00,$00,$00,$81	; $ff70 (*)
   3803  1f78		       7f 55 2a 55*	      .byte.b	$7f,$55,$2a,$55,$2a,$3e,$00,$b9	; $ff78 (*)
   3804  1f80		       86 91 81 7e*	      .byte.b	$86,$91,$81,$7e,$80,$86,$a6,$5a	; $ff80 (*)
   3805  1f88		       7e 86 7f 00*	      .byte.b	$7e,$86,$7f,$00,$d6,$77,$77,$80	; $ff88 (*)
   3806  1f90		       d6 77 00 c1*	      .byte.b	$d6,$77,$00,$c1,$b6,$a1,$81,$1c	; $ff90 (*)
   3807  1f98		       2a 55 2a 14*	      .byte.b	$2a,$55,$2a,$14,$3e,$00,$00,$00	; $ff98 (*)
   3808  1fa0		       00 00 86 70*	      .byte.b	$00,$00,$86,$70,$5f,$72,$05,$00	; $ffa0 (*)
   3809  1fa8		       c1 00 81 84*	      .byte.b	$c1,$00,$81,$84,$1f,$89,$f9,$91	; $ffa8 (*)
   3810  1fb0		       f9 18 81 80*	      .byte.b	$f9,$18,$81,$80,$1c,$1f,$f1,$7f	; $ffb0 (*)
   3811  1fb8		       89 f9 f9 89*	      .byte.b	$89,$f9,$f9,$89,$91,$f1,$f9,$89	; $ffb8 (*)
   3812  1fc0		       f9 f9 89 f9*	      .byte.b	$f9,$f9,$89,$f9,$89,$f9,$89,$3f	; $ffc0 (*)
   3813  1fc8		       91 81 70 40*	      .byte.b	$91,$81,$70,$40,$84,$89,$7e,$f9	; $ffc8 (*)
   3814  1fd0		       91 f9 f1 00*	      .byte.b	$91,$f9,$f1,$00,$b9,$84,$00,$00	; $ffd0 (*)
   3815  1fd8		       89 38 78 7b*	      .byte.b	$89,$38,$78,$7b,$f9,$89,$f9,$6f	; $ffd8 (*)
   3816  1fe0		       00 b1 92 e9*	      .byte.b	$00,$b1,$92,$e9,$f9,$00,$30,$30	; $ffe0 (*)
   3817  1fe8		       30 e9 30 30*	      .byte.b	$30,$e9,$30,$30,$30,$10,$00,$00	; $ffe8 (*)
   3818  1ff0		       00 00		      .byte.b	$00,$00	; $fff0 (*)
   3819  1ff2				   Lfff2
   3820  1ff2		       a4		      .byte.b	$a4	; $fff2 (D)
   3821  1ff3		       15 95 06 86*	      .byte.b	$15,$95,$06,$86,$f7	; $fff3 (*)
   3822  1ff8				   Lfff8
   3823  1ff8		       00		      .byte.b	$00	; $fff8 (D)
   3824  1ff9		       00 00 f0 	      .byte.b	$00,$00,$f0	; $fff9 (*)
   3825  1ffc		       00 f0		      .byte.b	$00,$f0	; $fffc (D)
   3826  1ffe		       00		      .byte.b	$00	; $fffe (*)
   3827  1fff		       f0		      .byte.b	$f0	; $ffff (*)
